
multiply.elf:     file format elf32-littleriscv


Disassembly of section .text.init:

80000000 <_start>:
80000000:	00000093          	li	ra,0
80000004:	00000113          	li	sp,0
80000008:	00000193          	li	gp,0
8000000c:	00000213          	li	tp,0
80000010:	00000293          	li	t0,0
80000014:	00000313          	li	t1,0
80000018:	00000393          	li	t2,0
8000001c:	00000413          	li	s0,0
80000020:	00000493          	li	s1,0
80000024:	00000513          	li	a0,0
80000028:	00000593          	li	a1,0
8000002c:	00000613          	li	a2,0
80000030:	00000693          	li	a3,0
80000034:	00000713          	li	a4,0
80000038:	00000793          	li	a5,0
8000003c:	00000813          	li	a6,0
80000040:	00000893          	li	a7,0
80000044:	00000913          	li	s2,0
80000048:	00000993          	li	s3,0
8000004c:	00000a13          	li	s4,0
80000050:	00000a93          	li	s5,0
80000054:	00000b13          	li	s6,0
80000058:	00000b93          	li	s7,0
8000005c:	00000c13          	li	s8,0
80000060:	00000c93          	li	s9,0
80000064:	00000d13          	li	s10,0
80000068:	00000d93          	li	s11,0
8000006c:	00000e13          	li	t3,0
80000070:	00000e93          	li	t4,0
80000074:	00000f13          	li	t5,0
80000078:	00000f93          	li	t6,0
8000007c:	0001e2b7          	lui	t0,0x1e
80000080:	60028293          	add	t0,t0,1536 # 1e600 <buflen.1+0x1e5c0>
80000084:	3002a073          	csrs	mstatus,t0
80000088:	00100293          	li	t0,1
8000008c:	01f29293          	sll	t0,t0,0x1f
80000090:	0002ca63          	bltz	t0,800000a4 <_start+0xa4>
80000094:	00100513          	li	a0,1
80000098:	00001297          	auipc	t0,0x1
8000009c:	f6a2a423          	sw	a0,-152(t0) # 80001000 <tohost>
800000a0:	ff5ff06f          	j	80000094 <_start+0x94>
800000a4:	00000297          	auipc	t0,0x0
800000a8:	04028293          	add	t0,t0,64 # 800000e4 <trap_entry>
800000ac:	30529073          	csrw	mtvec,t0
800000b0:	00005197          	auipc	gp,0x5
800000b4:	c5818193          	add	gp,gp,-936 # 80004d08 <__global_pointer$>
800000b8:	87718213          	add	tp,gp,-1929 # 8000457f <_end+0x3f>
800000bc:	fc027213          	and	tp,tp,-64
800000c0:	f1402573          	csrr	a0,mhartid
800000c4:	00100593          	li	a1,1
800000c8:	00b57063          	bgeu	a0,a1,800000c8 <_start+0xc8>
800000cc:	00150113          	add	sp,a0,1
800000d0:	01111113          	sll	sp,sp,0x11
800000d4:	00410133          	add	sp,sp,tp
800000d8:	01151613          	sll	a2,a0,0x11
800000dc:	00c20233          	add	tp,tp,a2
800000e0:	0210206f          	j	80002900 <_init>

800000e4 <trap_entry>:
800000e4:	ef010113          	add	sp,sp,-272
800000e8:	00112223          	sw	ra,4(sp)
800000ec:	00212423          	sw	sp,8(sp)
800000f0:	00312623          	sw	gp,12(sp)
800000f4:	00412823          	sw	tp,16(sp)
800000f8:	00512a23          	sw	t0,20(sp)
800000fc:	00612c23          	sw	t1,24(sp)
80000100:	00712e23          	sw	t2,28(sp)
80000104:	02812023          	sw	s0,32(sp)
80000108:	02912223          	sw	s1,36(sp)
8000010c:	02a12423          	sw	a0,40(sp)
80000110:	02b12623          	sw	a1,44(sp)
80000114:	02c12823          	sw	a2,48(sp)
80000118:	02d12a23          	sw	a3,52(sp)
8000011c:	02e12c23          	sw	a4,56(sp)
80000120:	02f12e23          	sw	a5,60(sp)
80000124:	05012023          	sw	a6,64(sp)
80000128:	05112223          	sw	a7,68(sp)
8000012c:	05212423          	sw	s2,72(sp)
80000130:	05312623          	sw	s3,76(sp)
80000134:	05412823          	sw	s4,80(sp)
80000138:	05512a23          	sw	s5,84(sp)
8000013c:	05612c23          	sw	s6,88(sp)
80000140:	05712e23          	sw	s7,92(sp)
80000144:	07812023          	sw	s8,96(sp)
80000148:	07912223          	sw	s9,100(sp)
8000014c:	07a12423          	sw	s10,104(sp)
80000150:	07b12623          	sw	s11,108(sp)
80000154:	07c12823          	sw	t3,112(sp)
80000158:	07d12a23          	sw	t4,116(sp)
8000015c:	07e12c23          	sw	t5,120(sp)
80000160:	07f12e23          	sw	t6,124(sp)
80000164:	34202573          	csrr	a0,mcause
80000168:	341025f3          	csrr	a1,mepc
8000016c:	00010613          	mv	a2,sp
80000170:	494020ef          	jal	80002604 <handle_trap>
80000174:	34151073          	csrw	mepc,a0
80000178:	000022b7          	lui	t0,0x2
8000017c:	80028293          	add	t0,t0,-2048 # 1800 <buflen.1+0x17c0>
80000180:	3002a073          	csrs	mstatus,t0
80000184:	00412083          	lw	ra,4(sp)
80000188:	00812103          	lw	sp,8(sp)
8000018c:	00c12183          	lw	gp,12(sp)
80000190:	01012203          	lw	tp,16(sp)
80000194:	01412283          	lw	t0,20(sp)
80000198:	01812303          	lw	t1,24(sp)
8000019c:	01c12383          	lw	t2,28(sp)
800001a0:	02012403          	lw	s0,32(sp)
800001a4:	02412483          	lw	s1,36(sp)
800001a8:	02812503          	lw	a0,40(sp)
800001ac:	02c12583          	lw	a1,44(sp)
800001b0:	03012603          	lw	a2,48(sp)
800001b4:	03412683          	lw	a3,52(sp)
800001b8:	03812703          	lw	a4,56(sp)
800001bc:	03c12783          	lw	a5,60(sp)
800001c0:	04012803          	lw	a6,64(sp)
800001c4:	04412883          	lw	a7,68(sp)
800001c8:	04812903          	lw	s2,72(sp)
800001cc:	04c12983          	lw	s3,76(sp)
800001d0:	05012a03          	lw	s4,80(sp)
800001d4:	05412a83          	lw	s5,84(sp)
800001d8:	05812b03          	lw	s6,88(sp)
800001dc:	05c12b83          	lw	s7,92(sp)
800001e0:	06012c03          	lw	s8,96(sp)
800001e4:	06412c83          	lw	s9,100(sp)
800001e8:	06812d03          	lw	s10,104(sp)
800001ec:	06c12d83          	lw	s11,108(sp)
800001f0:	07012e03          	lw	t3,112(sp)
800001f4:	07412e83          	lw	t4,116(sp)
800001f8:	07812f03          	lw	t5,120(sp)
800001fc:	07c12f83          	lw	t6,124(sp)
80000200:	11010113          	add	sp,sp,272
80000204:	30200073          	mret

80000208 <test_result>:
80000208:	00050663          	beqz	a0,80000214 <test_pass>

8000020c <test_fail>:
8000020c:	00000193          	li	gp,0
80000210:	00000073          	ecall

80000214 <test_pass>:
80000214:	00100193          	li	gp,1
80000218:	00000073          	ecall

Disassembly of section .text:

80002000 <multiply>:
80002000:	00050713          	mv	a4,a0
80002004:	02000693          	li	a3,32
80002008:	00000513          	li	a0,0
8000200c:	00177793          	and	a5,a4,1
80002010:	fff68693          	add	a3,a3,-1
80002014:	00078463          	beqz	a5,8000201c <multiply+0x1c>
80002018:	00b50533          	add	a0,a0,a1
8000201c:	40175713          	sra	a4,a4,0x1
80002020:	00159593          	sll	a1,a1,0x1
80002024:	fe0694e3          	bnez	a3,8000200c <multiply+0xc>
80002028:	00008067          	ret

8000202c <putchar>:
8000202c:	04022583          	lw	a1,64(tp) # 40 <buflen.1>
80002030:	00020793          	mv	a5,tp
80002034:	00b787b3          	add	a5,a5,a1
80002038:	00158693          	add	a3,a1,1
8000203c:	00a78023          	sb	a0,0(a5)
80002040:	04d22023          	sw	a3,64(tp) # 40 <buflen.1>
80002044:	00a00793          	li	a5,10
80002048:	06f50263          	beq	a0,a5,800020ac <putchar+0x80>
8000204c:	04000793          	li	a5,64
80002050:	00f68663          	beq	a3,a5,8000205c <putchar+0x30>
80002054:	00000513          	li	a0,0
80002058:	00008067          	ret
8000205c:	04000313          	li	t1,64
80002060:	00000813          	li	a6,0
80002064:	00000793          	li	a5,0
80002068:	00000693          	li	a3,0
8000206c:	00020713          	mv	a4,tp
80002070:	ff0008b7          	lui	a7,0xff000
80002074:	00074503          	lbu	a0,0(a4)
80002078:	00178613          	add	a2,a5,1
8000207c:	00f885b3          	add	a1,a7,a5
80002080:	00f637b3          	sltu	a5,a2,a5
80002084:	00d786b3          	add	a3,a5,a3
80002088:	00a58023          	sb	a0,0(a1)
8000208c:	00170713          	add	a4,a4,1
80002090:	00060793          	mv	a5,a2
80002094:	ff06e0e3          	bltu	a3,a6,80002074 <putchar+0x48>
80002098:	00d81463          	bne	a6,a3,800020a0 <putchar+0x74>
8000209c:	fc666ce3          	bltu	a2,t1,80002074 <putchar+0x48>
800020a0:	04022023          	sw	zero,64(tp) # 40 <buflen.1>
800020a4:	00000513          	li	a0,0
800020a8:	00008067          	ret
800020ac:	41f6d813          	sra	a6,a3,0x1f
800020b0:	0106e7b3          	or	a5,a3,a6
800020b4:	00068313          	mv	t1,a3
800020b8:	fa0796e3          	bnez	a5,80002064 <putchar+0x38>
800020bc:	04022023          	sw	zero,64(tp) # 40 <buflen.1>
800020c0:	fe5ff06f          	j	800020a4 <putchar+0x78>

800020c4 <vprintfmt>:
800020c4:	eb010113          	add	sp,sp,-336
800020c8:	14812423          	sw	s0,328(sp)
800020cc:	15212023          	sw	s2,320(sp)
800020d0:	13312e23          	sw	s3,316(sp)
800020d4:	13412c23          	sw	s4,312(sp)
800020d8:	14112623          	sw	ra,332(sp)
800020dc:	14912223          	sw	s1,324(sp)
800020e0:	13512a23          	sw	s5,308(sp)
800020e4:	13612823          	sw	s6,304(sp)
800020e8:	13712623          	sw	s7,300(sp)
800020ec:	13812423          	sw	s8,296(sp)
800020f0:	13912223          	sw	s9,292(sp)
800020f4:	13a12023          	sw	s10,288(sp)
800020f8:	11b12e23          	sw	s11,284(sp)
800020fc:	00050993          	mv	s3,a0
80002100:	00058913          	mv	s2,a1
80002104:	00060413          	mv	s0,a2
80002108:	00d12623          	sw	a3,12(sp)
8000210c:	02500a13          	li	s4,37
80002110:	0140006f          	j	80002124 <vprintfmt+0x60>
80002114:	06050463          	beqz	a0,8000217c <vprintfmt+0xb8>
80002118:	00090593          	mv	a1,s2
8000211c:	00140413          	add	s0,s0,1
80002120:	000980e7          	jalr	s3
80002124:	00044503          	lbu	a0,0(s0)
80002128:	ff4516e3          	bne	a0,s4,80002114 <vprintfmt+0x50>
8000212c:	00144683          	lbu	a3,1(s0)
80002130:	00140a93          	add	s5,s0,1
80002134:	02000793          	li	a5,32
80002138:	000a8713          	mv	a4,s5
8000213c:	00f12423          	sw	a5,8(sp)
80002140:	fff00493          	li	s1,-1
80002144:	fff00b13          	li	s6,-1
80002148:	00000593          	li	a1,0
8000214c:	fdd68793          	add	a5,a3,-35
80002150:	0ff7f793          	zext.b	a5,a5
80002154:	05500613          	li	a2,85
80002158:	00170413          	add	s0,a4,1
8000215c:	06f66e63          	bltu	a2,a5,800021d8 <vprintfmt+0x114>
80002160:	00002617          	auipc	a2,0x2
80002164:	b9c60613          	add	a2,a2,-1124 # 80003cfc <main+0x134>
80002168:	00279793          	sll	a5,a5,0x2
8000216c:	00c787b3          	add	a5,a5,a2
80002170:	0007a783          	lw	a5,0(a5)
80002174:	00c787b3          	add	a5,a5,a2
80002178:	00078067          	jr	a5
8000217c:	14c12083          	lw	ra,332(sp)
80002180:	14812403          	lw	s0,328(sp)
80002184:	14412483          	lw	s1,324(sp)
80002188:	14012903          	lw	s2,320(sp)
8000218c:	13c12983          	lw	s3,316(sp)
80002190:	13812a03          	lw	s4,312(sp)
80002194:	13412a83          	lw	s5,308(sp)
80002198:	13012b03          	lw	s6,304(sp)
8000219c:	12c12b83          	lw	s7,300(sp)
800021a0:	12812c03          	lw	s8,296(sp)
800021a4:	12412c83          	lw	s9,292(sp)
800021a8:	12012d03          	lw	s10,288(sp)
800021ac:	11c12d83          	lw	s11,284(sp)
800021b0:	15010113          	add	sp,sp,336
800021b4:	00008067          	ret
800021b8:	00d12423          	sw	a3,8(sp)
800021bc:	00174683          	lbu	a3,1(a4)
800021c0:	05500613          	li	a2,85
800021c4:	00040713          	mv	a4,s0
800021c8:	fdd68793          	add	a5,a3,-35
800021cc:	0ff7f793          	zext.b	a5,a5
800021d0:	00170413          	add	s0,a4,1
800021d4:	f8f676e3          	bgeu	a2,a5,80002160 <vprintfmt+0x9c>
800021d8:	00090593          	mv	a1,s2
800021dc:	02500513          	li	a0,37
800021e0:	000980e7          	jalr	s3
800021e4:	000a8413          	mv	s0,s5
800021e8:	f3dff06f          	j	80002124 <vprintfmt+0x60>
800021ec:	00174603          	lbu	a2,1(a4)
800021f0:	00900793          	li	a5,9
800021f4:	fd068493          	add	s1,a3,-48
800021f8:	fd060713          	add	a4,a2,-48
800021fc:	00060693          	mv	a3,a2
80002200:	36e7ec63          	bltu	a5,a4,80002578 <vprintfmt+0x4b4>
80002204:	00040713          	mv	a4,s0
80002208:	00900513          	li	a0,9
8000220c:	00249793          	sll	a5,s1,0x2
80002210:	009787b3          	add	a5,a5,s1
80002214:	00170713          	add	a4,a4,1
80002218:	00179793          	sll	a5,a5,0x1
8000221c:	00c787b3          	add	a5,a5,a2
80002220:	00074603          	lbu	a2,0(a4)
80002224:	fd078493          	add	s1,a5,-48
80002228:	fd060793          	add	a5,a2,-48
8000222c:	00060693          	mv	a3,a2
80002230:	fcf57ee3          	bgeu	a0,a5,8000220c <vprintfmt+0x148>
80002234:	f00b5ce3          	bgez	s6,8000214c <vprintfmt+0x88>
80002238:	00048b13          	mv	s6,s1
8000223c:	fff00493          	li	s1,-1
80002240:	f0dff06f          	j	8000214c <vprintfmt+0x88>
80002244:	00174683          	lbu	a3,1(a4)
80002248:	00040713          	mv	a4,s0
8000224c:	f01ff06f          	j	8000214c <vprintfmt+0x88>
80002250:	00090593          	mv	a1,s2
80002254:	02500513          	li	a0,37
80002258:	000980e7          	jalr	s3
8000225c:	ec9ff06f          	j	80002124 <vprintfmt+0x60>
80002260:	00c12783          	lw	a5,12(sp)
80002264:	00174683          	lbu	a3,1(a4)
80002268:	00040713          	mv	a4,s0
8000226c:	0007a483          	lw	s1,0(a5)
80002270:	00478793          	add	a5,a5,4
80002274:	00f12623          	sw	a5,12(sp)
80002278:	fbdff06f          	j	80002234 <vprintfmt+0x170>
8000227c:	03000513          	li	a0,48
80002280:	00090593          	mv	a1,s2
80002284:	000980e7          	jalr	s3
80002288:	00090593          	mv	a1,s2
8000228c:	07800513          	li	a0,120
80002290:	000980e7          	jalr	s3
80002294:	00c12783          	lw	a5,12(sp)
80002298:	01000a93          	li	s5,16
8000229c:	00000d93          	li	s11,0
800022a0:	00478713          	add	a4,a5,4
800022a4:	00c12783          	lw	a5,12(sp)
800022a8:	00000c13          	li	s8,0
800022ac:	0007a483          	lw	s1,0(a5)
800022b0:	00e12623          	sw	a4,12(sp)
800022b4:	000a8613          	mv	a2,s5
800022b8:	00000693          	li	a3,0
800022bc:	00048513          	mv	a0,s1
800022c0:	000c0593          	mv	a1,s8
800022c4:	35c010ef          	jal	80003620 <__umoddi3>
800022c8:	00a12823          	sw	a0,16(sp)
800022cc:	278d8263          	beq	s11,s8,80002530 <vprintfmt+0x46c>
800022d0:	01410b93          	add	s7,sp,20
800022d4:	00100c93          	li	s9,1
800022d8:	000a8613          	mv	a2,s5
800022dc:	00000693          	li	a3,0
800022e0:	00048513          	mv	a0,s1
800022e4:	000c0593          	mv	a1,s8
800022e8:	575000ef          	jal	8000305c <__udivdi3>
800022ec:	000a8613          	mv	a2,s5
800022f0:	00000693          	li	a3,0
800022f4:	00050493          	mv	s1,a0
800022f8:	00058c13          	mv	s8,a1
800022fc:	324010ef          	jal	80003620 <__umoddi3>
80002300:	00aba023          	sw	a0,0(s7)
80002304:	000c8d13          	mv	s10,s9
80002308:	004b8b93          	add	s7,s7,4
8000230c:	001c8c93          	add	s9,s9,1
80002310:	fd8d94e3          	bne	s11,s8,800022d8 <vprintfmt+0x214>
80002314:	fd54f2e3          	bgeu	s1,s5,800022d8 <vprintfmt+0x214>
80002318:	fffb0a93          	add	s5,s6,-1
8000231c:	fffc8493          	add	s1,s9,-1
80002320:	016cdc63          	bge	s9,s6,80002338 <vprintfmt+0x274>
80002324:	00812503          	lw	a0,8(sp)
80002328:	fffa8a93          	add	s5,s5,-1
8000232c:	00090593          	mv	a1,s2
80002330:	000980e7          	jalr	s3
80002334:	ff5498e3          	bne	s1,s5,80002324 <vprintfmt+0x260>
80002338:	002d1793          	sll	a5,s10,0x2
8000233c:	01078793          	add	a5,a5,16
80002340:	00278ab3          	add	s5,a5,sp
80002344:	00900493          	li	s1,9
80002348:	0080006f          	j	80002350 <vprintfmt+0x28c>
8000234c:	00078d13          	mv	s10,a5
80002350:	000aa503          	lw	a0,0(s5)
80002354:	00090593          	mv	a1,s2
80002358:	ffca8a93          	add	s5,s5,-4
8000235c:	00a4b7b3          	sltu	a5,s1,a0
80002360:	40f007b3          	neg	a5,a5
80002364:	0277f793          	and	a5,a5,39
80002368:	03078793          	add	a5,a5,48
8000236c:	00f50533          	add	a0,a0,a5
80002370:	000980e7          	jalr	s3
80002374:	fffd0793          	add	a5,s10,-1
80002378:	fc0d1ae3          	bnez	s10,8000234c <vprintfmt+0x288>
8000237c:	da9ff06f          	j	80002124 <vprintfmt+0x60>
80002380:	00100793          	li	a5,1
80002384:	1ab7ce63          	blt	a5,a1,80002540 <vprintfmt+0x47c>
80002388:	00c12783          	lw	a5,12(sp)
8000238c:	0007a483          	lw	s1,0(a5)
80002390:	00478793          	add	a5,a5,4
80002394:	00f12623          	sw	a5,12(sp)
80002398:	41f4dc13          	sra	s8,s1,0x1f
8000239c:	020c5063          	bgez	s8,800023bc <vprintfmt+0x2f8>
800023a0:	00090593          	mv	a1,s2
800023a4:	02d00513          	li	a0,45
800023a8:	000980e7          	jalr	s3
800023ac:	00903733          	snez	a4,s1
800023b0:	418007b3          	neg	a5,s8
800023b4:	409004b3          	neg	s1,s1
800023b8:	40e78c33          	sub	s8,a5,a4
800023bc:	00a00a93          	li	s5,10
800023c0:	00000d93          	li	s11,0
800023c4:	ef1ff06f          	j	800022b4 <vprintfmt+0x1f0>
800023c8:	00174683          	lbu	a3,1(a4)
800023cc:	00158593          	add	a1,a1,1
800023d0:	00040713          	mv	a4,s0
800023d4:	d79ff06f          	j	8000214c <vprintfmt+0x88>
800023d8:	01000a93          	li	s5,16
800023dc:	00000d93          	li	s11,0
800023e0:	00100793          	li	a5,1
800023e4:	12b7c663          	blt	a5,a1,80002510 <vprintfmt+0x44c>
800023e8:	00c12783          	lw	a5,12(sp)
800023ec:	00478713          	add	a4,a5,4
800023f0:	eb5ff06f          	j	800022a4 <vprintfmt+0x1e0>
800023f4:	00c12783          	lw	a5,12(sp)
800023f8:	0007aa83          	lw	s5,0(a5)
800023fc:	00478b93          	add	s7,a5,4
80002400:	060a8263          	beqz	s5,80002464 <vprintfmt+0x3a0>
80002404:	0d605463          	blez	s6,800024cc <vprintfmt+0x408>
80002408:	00812703          	lw	a4,8(sp)
8000240c:	02d00793          	li	a5,45
80002410:	06f71e63          	bne	a4,a5,8000248c <vprintfmt+0x3c8>
80002414:	000ac503          	lbu	a0,0(s5)
80002418:	02050863          	beqz	a0,80002448 <vprintfmt+0x384>
8000241c:	fff00c13          	li	s8,-1
80002420:	0004c663          	bltz	s1,8000242c <vprintfmt+0x368>
80002424:	fff48493          	add	s1,s1,-1
80002428:	01848e63          	beq	s1,s8,80002444 <vprintfmt+0x380>
8000242c:	00090593          	mv	a1,s2
80002430:	001a8a93          	add	s5,s5,1
80002434:	000980e7          	jalr	s3
80002438:	000ac503          	lbu	a0,0(s5)
8000243c:	fffb0b13          	add	s6,s6,-1
80002440:	fe0510e3          	bnez	a0,80002420 <vprintfmt+0x35c>
80002444:	01605c63          	blez	s6,8000245c <vprintfmt+0x398>
80002448:	fffb0b13          	add	s6,s6,-1
8000244c:	00090593          	mv	a1,s2
80002450:	02000513          	li	a0,32
80002454:	000980e7          	jalr	s3
80002458:	fe0b18e3          	bnez	s6,80002448 <vprintfmt+0x384>
8000245c:	01712623          	sw	s7,12(sp)
80002460:	cc5ff06f          	j	80002124 <vprintfmt+0x60>
80002464:	00002a97          	auipc	s5,0x2
80002468:	858a8a93          	add	s5,s5,-1960 # 80003cbc <main+0xf4>
8000246c:	02800513          	li	a0,40
80002470:	fb6056e3          	blez	s6,8000241c <vprintfmt+0x358>
80002474:	00812703          	lw	a4,8(sp)
80002478:	02d00793          	li	a5,45
8000247c:	00002a97          	auipc	s5,0x2
80002480:	840a8a93          	add	s5,s5,-1984 # 80003cbc <main+0xf4>
80002484:	02800513          	li	a0,40
80002488:	f8f70ae3          	beq	a4,a5,8000241c <vprintfmt+0x358>
8000248c:	000a8793          	mv	a5,s5
80002490:	009a86b3          	add	a3,s5,s1
80002494:	00049863          	bnez	s1,800024a4 <vprintfmt+0x3e0>
80002498:	0200006f          	j	800024b8 <vprintfmt+0x3f4>
8000249c:	00178793          	add	a5,a5,1
800024a0:	00d78663          	beq	a5,a3,800024ac <vprintfmt+0x3e8>
800024a4:	0007c703          	lbu	a4,0(a5)
800024a8:	fe071ae3          	bnez	a4,8000249c <vprintfmt+0x3d8>
800024ac:	415787b3          	sub	a5,a5,s5
800024b0:	40fb0b33          	sub	s6,s6,a5
800024b4:	01605c63          	blez	s6,800024cc <vprintfmt+0x408>
800024b8:	00812503          	lw	a0,8(sp)
800024bc:	fffb0b13          	add	s6,s6,-1
800024c0:	00090593          	mv	a1,s2
800024c4:	000980e7          	jalr	s3
800024c8:	fe0b18e3          	bnez	s6,800024b8 <vprintfmt+0x3f4>
800024cc:	000ac503          	lbu	a0,0(s5)
800024d0:	f80506e3          	beqz	a0,8000245c <vprintfmt+0x398>
800024d4:	fff00c13          	li	s8,-1
800024d8:	f49ff06f          	j	80002420 <vprintfmt+0x35c>
800024dc:	fffb4793          	not	a5,s6
800024e0:	41f7d793          	sra	a5,a5,0x1f
800024e4:	00174683          	lbu	a3,1(a4)
800024e8:	00fb7b33          	and	s6,s6,a5
800024ec:	00040713          	mv	a4,s0
800024f0:	c5dff06f          	j	8000214c <vprintfmt+0x88>
800024f4:	00c12783          	lw	a5,12(sp)
800024f8:	00090593          	mv	a1,s2
800024fc:	0007a503          	lw	a0,0(a5)
80002500:	00478b93          	add	s7,a5,4
80002504:	000980e7          	jalr	s3
80002508:	01712623          	sw	s7,12(sp)
8000250c:	c19ff06f          	j	80002124 <vprintfmt+0x60>
80002510:	00c12783          	lw	a5,12(sp)
80002514:	00778b93          	add	s7,a5,7
80002518:	ff8bfb93          	and	s7,s7,-8
8000251c:	008b8793          	add	a5,s7,8
80002520:	000ba483          	lw	s1,0(s7)
80002524:	004bac03          	lw	s8,4(s7)
80002528:	00f12623          	sw	a5,12(sp)
8000252c:	d89ff06f          	j	800022b4 <vprintfmt+0x1f0>
80002530:	db54f0e3          	bgeu	s1,s5,800022d0 <vprintfmt+0x20c>
80002534:	00000d13          	li	s10,0
80002538:	00100c93          	li	s9,1
8000253c:	dddff06f          	j	80002318 <vprintfmt+0x254>
80002540:	00c12783          	lw	a5,12(sp)
80002544:	00778b93          	add	s7,a5,7
80002548:	ff8bfb93          	and	s7,s7,-8
8000254c:	008b8793          	add	a5,s7,8
80002550:	000ba483          	lw	s1,0(s7)
80002554:	004bac03          	lw	s8,4(s7)
80002558:	00f12623          	sw	a5,12(sp)
8000255c:	e41ff06f          	j	8000239c <vprintfmt+0x2d8>
80002560:	00a00a93          	li	s5,10
80002564:	00000d93          	li	s11,0
80002568:	e79ff06f          	j	800023e0 <vprintfmt+0x31c>
8000256c:	00800a93          	li	s5,8
80002570:	00000d93          	li	s11,0
80002574:	e6dff06f          	j	800023e0 <vprintfmt+0x31c>
80002578:	00040713          	mv	a4,s0
8000257c:	cb9ff06f          	j	80002234 <vprintfmt+0x170>

80002580 <sprintf_putch.0>:
80002580:	0005a783          	lw	a5,0(a1)
80002584:	00a78023          	sb	a0,0(a5)
80002588:	0005a783          	lw	a5,0(a1)
8000258c:	00178793          	add	a5,a5,1
80002590:	00f5a023          	sw	a5,0(a1)
80002594:	00008067          	ret

80002598 <setStats>:
80002598:	b0002773          	csrr	a4,mcycle
8000259c:	00002797          	auipc	a5,0x2
800025a0:	f7478793          	add	a5,a5,-140 # 80004510 <counters>
800025a4:	00050a63          	beqz	a0,800025b8 <setStats+0x20>
800025a8:	00e7a023          	sw	a4,0(a5)
800025ac:	b0202773          	csrr	a4,minstret
800025b0:	00e7a223          	sw	a4,4(a5)
800025b4:	00008067          	ret
800025b8:	0007a603          	lw	a2,0(a5)
800025bc:	00002697          	auipc	a3,0x2
800025c0:	f4c68693          	add	a3,a3,-180 # 80004508 <counter_names>
800025c4:	40c70733          	sub	a4,a4,a2
800025c8:	00001617          	auipc	a2,0x1
800025cc:	6fc60613          	add	a2,a2,1788 # 80003cc4 <main+0xfc>
800025d0:	00c6a023          	sw	a2,0(a3)
800025d4:	00e7a023          	sw	a4,0(a5)
800025d8:	b0202773          	csrr	a4,minstret
800025dc:	0047a603          	lw	a2,4(a5)
800025e0:	00001597          	auipc	a1,0x1
800025e4:	6ec58593          	add	a1,a1,1772 # 80003ccc <main+0x104>
800025e8:	00b6a223          	sw	a1,4(a3)
800025ec:	40c70733          	sub	a4,a4,a2
800025f0:	00e7a223          	sw	a4,4(a5)
800025f4:	00008067          	ret

800025f8 <tohost_exit>:
800025f8:	ff010113          	add	sp,sp,-16
800025fc:	00112623          	sw	ra,12(sp)
80002600:	c09fd0ef          	jal	80000208 <test_result>

80002604 <handle_trap>:
80002604:	ff010113          	add	sp,sp,-16
80002608:	53900513          	li	a0,1337
8000260c:	00112623          	sw	ra,12(sp)
80002610:	bf9fd0ef          	jal	80000208 <test_result>

80002614 <exit>:
80002614:	ff010113          	add	sp,sp,-16
80002618:	00112623          	sw	ra,12(sp)
8000261c:	bedfd0ef          	jal	80000208 <test_result>

80002620 <abort>:
80002620:	ff010113          	add	sp,sp,-16
80002624:	08600513          	li	a0,134
80002628:	00112623          	sw	ra,12(sp)
8000262c:	bddfd0ef          	jal	80000208 <test_result>

80002630 <printstr>:
80002630:	00054783          	lbu	a5,0(a0)
80002634:	02078a63          	beqz	a5,80002668 <printstr+0x38>
80002638:	00050793          	mv	a5,a0
8000263c:	0017c703          	lbu	a4,1(a5)
80002640:	00178793          	add	a5,a5,1
80002644:	fe071ce3          	bnez	a4,8000263c <printstr+0xc>
80002648:	02f50063          	beq	a0,a5,80002668 <printstr+0x38>
8000264c:	ff000637          	lui	a2,0xff000
80002650:	40a60633          	sub	a2,a2,a0
80002654:	00054683          	lbu	a3,0(a0)
80002658:	00c50733          	add	a4,a0,a2
8000265c:	00150513          	add	a0,a0,1
80002660:	00d70023          	sb	a3,0(a4)
80002664:	fef518e3          	bne	a0,a5,80002654 <printstr+0x24>
80002668:	00008067          	ret

8000266c <thread_entry>:
8000266c:	00051063          	bnez	a0,8000266c <thread_entry>
80002670:	00008067          	ret

80002674 <printhex>:
80002674:	fe010113          	add	sp,sp,-32
80002678:	00c10693          	add	a3,sp,12
8000267c:	01b10713          	add	a4,sp,27
80002680:	00900813          	li	a6,9
80002684:	0080006f          	j	8000268c <printhex+0x18>
80002688:	00078713          	mv	a4,a5
8000268c:	00f57793          	and	a5,a0,15
80002690:	00f837b3          	sltu	a5,a6,a5
80002694:	40f007b3          	neg	a5,a5
80002698:	0277f793          	and	a5,a5,39
8000269c:	00f57613          	and	a2,a0,15
800026a0:	03078793          	add	a5,a5,48
800026a4:	00c787b3          	add	a5,a5,a2
800026a8:	00f70023          	sb	a5,0(a4)
800026ac:	01c59613          	sll	a2,a1,0x1c
800026b0:	00455513          	srl	a0,a0,0x4
800026b4:	fff70793          	add	a5,a4,-1
800026b8:	00a66533          	or	a0,a2,a0
800026bc:	0045d593          	srl	a1,a1,0x4
800026c0:	fce694e3          	bne	a3,a4,80002688 <printhex+0x14>
800026c4:	00c14783          	lbu	a5,12(sp)
800026c8:	00010e23          	sb	zero,28(sp)
800026cc:	02078c63          	beqz	a5,80002704 <printhex+0x90>
800026d0:	00068713          	mv	a4,a3
800026d4:	00174783          	lbu	a5,1(a4)
800026d8:	00170713          	add	a4,a4,1
800026dc:	fe079ce3          	bnez	a5,800026d4 <printhex+0x60>
800026e0:	02d70263          	beq	a4,a3,80002704 <printhex+0x90>
800026e4:	ff0005b7          	lui	a1,0xff000
800026e8:	00068793          	mv	a5,a3
800026ec:	40d585b3          	sub	a1,a1,a3
800026f0:	0007c603          	lbu	a2,0(a5)
800026f4:	00b786b3          	add	a3,a5,a1
800026f8:	00178793          	add	a5,a5,1
800026fc:	00c68023          	sb	a2,0(a3)
80002700:	fef718e3          	bne	a4,a5,800026f0 <printhex+0x7c>
80002704:	02010113          	add	sp,sp,32
80002708:	00008067          	ret

8000270c <printf>:
8000270c:	fc010113          	add	sp,sp,-64
80002710:	02410313          	add	t1,sp,36
80002714:	00050e13          	mv	t3,a0
80002718:	02b12223          	sw	a1,36(sp)
8000271c:	02c12423          	sw	a2,40(sp)
80002720:	02d12623          	sw	a3,44(sp)
80002724:	00000517          	auipc	a0,0x0
80002728:	90850513          	add	a0,a0,-1784 # 8000202c <putchar>
8000272c:	00030693          	mv	a3,t1
80002730:	000e0613          	mv	a2,t3
80002734:	00000593          	li	a1,0
80002738:	00112e23          	sw	ra,28(sp)
8000273c:	02e12823          	sw	a4,48(sp)
80002740:	02f12a23          	sw	a5,52(sp)
80002744:	03012c23          	sw	a6,56(sp)
80002748:	03112e23          	sw	a7,60(sp)
8000274c:	00612623          	sw	t1,12(sp)
80002750:	975ff0ef          	jal	800020c4 <vprintfmt>
80002754:	01c12083          	lw	ra,28(sp)
80002758:	00000513          	li	a0,0
8000275c:	04010113          	add	sp,sp,64
80002760:	00008067          	ret

80002764 <sprintf>:
80002764:	fb010113          	add	sp,sp,-80
80002768:	03810313          	add	t1,sp,56
8000276c:	02812423          	sw	s0,40(sp)
80002770:	00a12623          	sw	a0,12(sp)
80002774:	02c12c23          	sw	a2,56(sp)
80002778:	02d12e23          	sw	a3,60(sp)
8000277c:	00050413          	mv	s0,a0
80002780:	00058613          	mv	a2,a1
80002784:	00000517          	auipc	a0,0x0
80002788:	dfc50513          	add	a0,a0,-516 # 80002580 <sprintf_putch.0>
8000278c:	00c10593          	add	a1,sp,12
80002790:	00030693          	mv	a3,t1
80002794:	02112623          	sw	ra,44(sp)
80002798:	04f12223          	sw	a5,68(sp)
8000279c:	04e12023          	sw	a4,64(sp)
800027a0:	05012423          	sw	a6,72(sp)
800027a4:	05112623          	sw	a7,76(sp)
800027a8:	00612e23          	sw	t1,28(sp)
800027ac:	919ff0ef          	jal	800020c4 <vprintfmt>
800027b0:	00c12783          	lw	a5,12(sp)
800027b4:	00078023          	sb	zero,0(a5)
800027b8:	00c12503          	lw	a0,12(sp)
800027bc:	02c12083          	lw	ra,44(sp)
800027c0:	40850533          	sub	a0,a0,s0
800027c4:	02812403          	lw	s0,40(sp)
800027c8:	05010113          	add	sp,sp,80
800027cc:	00008067          	ret

800027d0 <memcpy>:
800027d0:	00b567b3          	or	a5,a0,a1
800027d4:	00c7e7b3          	or	a5,a5,a2
800027d8:	0037f793          	and	a5,a5,3
800027dc:	00c50833          	add	a6,a0,a2
800027e0:	02078463          	beqz	a5,80002808 <memcpy+0x38>
800027e4:	00c58633          	add	a2,a1,a2
800027e8:	00050793          	mv	a5,a0
800027ec:	0b057663          	bgeu	a0,a6,80002898 <memcpy+0xc8>
800027f0:	0005c703          	lbu	a4,0(a1) # ff000000 <__global_pointer$+0x7effb2f8>
800027f4:	00158593          	add	a1,a1,1
800027f8:	00178793          	add	a5,a5,1
800027fc:	fee78fa3          	sb	a4,-1(a5)
80002800:	fec598e3          	bne	a1,a2,800027f0 <memcpy+0x20>
80002804:	00008067          	ret
80002808:	02050693          	add	a3,a0,32
8000280c:	0906f863          	bgeu	a3,a6,8000289c <memcpy+0xcc>
80002810:	00068793          	mv	a5,a3
80002814:	00058713          	mv	a4,a1
80002818:	00072383          	lw	t2,0(a4)
8000281c:	00472283          	lw	t0,4(a4)
80002820:	00872f83          	lw	t6,8(a4)
80002824:	00c72f03          	lw	t5,12(a4)
80002828:	01072e83          	lw	t4,16(a4)
8000282c:	01472e03          	lw	t3,20(a4)
80002830:	01872303          	lw	t1,24(a4)
80002834:	01c72883          	lw	a7,28(a4)
80002838:	02078793          	add	a5,a5,32
8000283c:	fc77a023          	sw	t2,-64(a5)
80002840:	fc57a223          	sw	t0,-60(a5)
80002844:	fdf7a423          	sw	t6,-56(a5)
80002848:	fde7a623          	sw	t5,-52(a5)
8000284c:	fdd7a823          	sw	t4,-48(a5)
80002850:	fdc7aa23          	sw	t3,-44(a5)
80002854:	fc67ac23          	sw	t1,-40(a5)
80002858:	fd17ae23          	sw	a7,-36(a5)
8000285c:	02070713          	add	a4,a4,32
80002860:	fb07ece3          	bltu	a5,a6,80002818 <memcpy+0x48>
80002864:	fdf60613          	add	a2,a2,-33 # feffffdf <__global_pointer$+0x7effb2d7>
80002868:	fe067793          	and	a5,a2,-32
8000286c:	02078793          	add	a5,a5,32
80002870:	fe067613          	and	a2,a2,-32
80002874:	00f585b3          	add	a1,a1,a5
80002878:	00c687b3          	add	a5,a3,a2
8000287c:	f907f4e3          	bgeu	a5,a6,80002804 <memcpy+0x34>
80002880:	0005a703          	lw	a4,0(a1)
80002884:	00478793          	add	a5,a5,4
80002888:	00458593          	add	a1,a1,4
8000288c:	fee7ae23          	sw	a4,-4(a5)
80002890:	ff07e8e3          	bltu	a5,a6,80002880 <memcpy+0xb0>
80002894:	00008067          	ret
80002898:	00008067          	ret
8000289c:	00050793          	mv	a5,a0
800028a0:	fddff06f          	j	8000287c <memcpy+0xac>

800028a4 <memset>:
800028a4:	00c567b3          	or	a5,a0,a2
800028a8:	0037f793          	and	a5,a5,3
800028ac:	00c50633          	add	a2,a0,a2
800028b0:	02078063          	beqz	a5,800028d0 <memset+0x2c>
800028b4:	0ff5f593          	zext.b	a1,a1
800028b8:	00050793          	mv	a5,a0
800028bc:	04c57063          	bgeu	a0,a2,800028fc <memset+0x58>
800028c0:	00178793          	add	a5,a5,1
800028c4:	feb78fa3          	sb	a1,-1(a5)
800028c8:	fec79ce3          	bne	a5,a2,800028c0 <memset+0x1c>
800028cc:	00008067          	ret
800028d0:	0ff5f593          	zext.b	a1,a1
800028d4:	00859713          	sll	a4,a1,0x8
800028d8:	00b70733          	add	a4,a4,a1
800028dc:	01071793          	sll	a5,a4,0x10
800028e0:	00f70733          	add	a4,a4,a5
800028e4:	fec574e3          	bgeu	a0,a2,800028cc <memset+0x28>
800028e8:	00050793          	mv	a5,a0
800028ec:	00478793          	add	a5,a5,4
800028f0:	fee7ae23          	sw	a4,-4(a5)
800028f4:	fec7ece3          	bltu	a5,a2,800028ec <memset+0x48>
800028f8:	00008067          	ret
800028fc:	00008067          	ret

80002900 <_init>:
80002900:	f6010113          	add	sp,sp,-160
80002904:	00002797          	auipc	a5,0x2
80002908:	c1478793          	add	a5,a5,-1004 # 80004518 <_tdata_begin>
8000290c:	09412423          	sw	s4,136(sp)
80002910:	00002a17          	auipc	s4,0x2
80002914:	c08a0a13          	add	s4,s4,-1016 # 80004518 <_tdata_begin>
80002918:	09312623          	sw	s3,140(sp)
8000291c:	40fa09b3          	sub	s3,s4,a5
80002920:	08912a23          	sw	s1,148(sp)
80002924:	09212823          	sw	s2,144(sp)
80002928:	00050493          	mv	s1,a0
8000292c:	00058913          	mv	s2,a1
80002930:	00020513          	mv	a0,tp
80002934:	00078593          	mv	a1,a5
80002938:	00098613          	mv	a2,s3
8000293c:	08112e23          	sw	ra,156(sp)
80002940:	08812c23          	sw	s0,152(sp)
80002944:	09512223          	sw	s5,132(sp)
80002948:	00020a93          	mv	s5,tp
8000294c:	e85ff0ef          	jal	800027d0 <memcpy>
80002950:	87c18613          	add	a2,gp,-1924 # 80004584 <_tbss_end>
80002954:	41460633          	sub	a2,a2,s4
80002958:	00000593          	li	a1,0
8000295c:	013a8533          	add	a0,s5,s3
80002960:	f45ff0ef          	jal	800028a4 <memset>
80002964:	00090593          	mv	a1,s2
80002968:	00048513          	mv	a0,s1
8000296c:	d01ff0ef          	jal	8000266c <thread_entry>
80002970:	00000593          	li	a1,0
80002974:	00000513          	li	a0,0
80002978:	250010ef          	jal	80003bc8 <main>
8000297c:	00002917          	auipc	s2,0x2
80002980:	b9490913          	add	s2,s2,-1132 # 80004510 <counters>
80002984:	00092683          	lw	a3,0(s2)
80002988:	03f10413          	add	s0,sp,63
8000298c:	fc047413          	and	s0,s0,-64
80002990:	00050493          	mv	s1,a0
80002994:	04069463          	bnez	a3,800029dc <_init+0xdc>
80002998:	00492683          	lw	a3,4(s2)
8000299c:	00069663          	bnez	a3,800029a8 <_init+0xa8>
800029a0:	00048513          	mv	a0,s1
800029a4:	865fd0ef          	jal	80000208 <test_result>
800029a8:	00040913          	mv	s2,s0
800029ac:	00002997          	auipc	s3,0x2
800029b0:	b5c98993          	add	s3,s3,-1188 # 80004508 <counter_names>
800029b4:	0049a603          	lw	a2,4(s3)
800029b8:	00090513          	mv	a0,s2
800029bc:	00001597          	auipc	a1,0x1
800029c0:	33458593          	add	a1,a1,820 # 80003cf0 <main+0x128>
800029c4:	da1ff0ef          	jal	80002764 <sprintf>
800029c8:	00a90933          	add	s2,s2,a0
800029cc:	fd240ae3          	beq	s0,s2,800029a0 <_init+0xa0>
800029d0:	00040513          	mv	a0,s0
800029d4:	c5dff0ef          	jal	80002630 <printstr>
800029d8:	fc9ff06f          	j	800029a0 <_init+0xa0>
800029dc:	00002997          	auipc	s3,0x2
800029e0:	b2c98993          	add	s3,s3,-1236 # 80004508 <counter_names>
800029e4:	0009a603          	lw	a2,0(s3)
800029e8:	00001597          	auipc	a1,0x1
800029ec:	30858593          	add	a1,a1,776 # 80003cf0 <main+0x128>
800029f0:	00040513          	mv	a0,s0
800029f4:	d71ff0ef          	jal	80002764 <sprintf>
800029f8:	00492683          	lw	a3,4(s2)
800029fc:	00a40933          	add	s2,s0,a0
80002a00:	fc0686e3          	beqz	a3,800029cc <_init+0xcc>
80002a04:	fb1ff06f          	j	800029b4 <_init+0xb4>

80002a08 <strlen>:
80002a08:	00054783          	lbu	a5,0(a0)
80002a0c:	00078e63          	beqz	a5,80002a28 <strlen+0x20>
80002a10:	00050793          	mv	a5,a0
80002a14:	0017c703          	lbu	a4,1(a5)
80002a18:	00178793          	add	a5,a5,1
80002a1c:	fe071ce3          	bnez	a4,80002a14 <strlen+0xc>
80002a20:	40a78533          	sub	a0,a5,a0
80002a24:	00008067          	ret
80002a28:	00000513          	li	a0,0
80002a2c:	00008067          	ret

80002a30 <strnlen>:
80002a30:	00b506b3          	add	a3,a0,a1
80002a34:	00050793          	mv	a5,a0
80002a38:	00059863          	bnez	a1,80002a48 <strnlen+0x18>
80002a3c:	0240006f          	j	80002a60 <strnlen+0x30>
80002a40:	00178793          	add	a5,a5,1
80002a44:	00f68a63          	beq	a3,a5,80002a58 <strnlen+0x28>
80002a48:	0007c703          	lbu	a4,0(a5)
80002a4c:	fe071ae3          	bnez	a4,80002a40 <strnlen+0x10>
80002a50:	40a78533          	sub	a0,a5,a0
80002a54:	00008067          	ret
80002a58:	40a68533          	sub	a0,a3,a0
80002a5c:	00008067          	ret
80002a60:	00000513          	li	a0,0
80002a64:	00008067          	ret

80002a68 <strcmp>:
80002a68:	00054783          	lbu	a5,0(a0)
80002a6c:	00158593          	add	a1,a1,1
80002a70:	00150513          	add	a0,a0,1
80002a74:	fff5c703          	lbu	a4,-1(a1)
80002a78:	00078863          	beqz	a5,80002a88 <strcmp+0x20>
80002a7c:	fee786e3          	beq	a5,a4,80002a68 <strcmp>
80002a80:	40e78533          	sub	a0,a5,a4
80002a84:	00008067          	ret
80002a88:	00000793          	li	a5,0
80002a8c:	ff5ff06f          	j	80002a80 <strcmp+0x18>

80002a90 <strcpy>:
80002a90:	00050793          	mv	a5,a0
80002a94:	0005c703          	lbu	a4,0(a1)
80002a98:	00178793          	add	a5,a5,1
80002a9c:	00158593          	add	a1,a1,1
80002aa0:	fee78fa3          	sb	a4,-1(a5)
80002aa4:	fe0718e3          	bnez	a4,80002a94 <strcpy+0x4>
80002aa8:	00008067          	ret

80002aac <atol>:
80002aac:	00054703          	lbu	a4,0(a0)
80002ab0:	02000693          	li	a3,32
80002ab4:	00050793          	mv	a5,a0
80002ab8:	00d71863          	bne	a4,a3,80002ac8 <atol+0x1c>
80002abc:	0017c703          	lbu	a4,1(a5)
80002ac0:	00178793          	add	a5,a5,1
80002ac4:	fed70ce3          	beq	a4,a3,80002abc <atol+0x10>
80002ac8:	02d00693          	li	a3,45
80002acc:	06d70063          	beq	a4,a3,80002b2c <atol+0x80>
80002ad0:	02b00693          	li	a3,43
80002ad4:	04d70063          	beq	a4,a3,80002b14 <atol+0x68>
80002ad8:	0007c683          	lbu	a3,0(a5)
80002adc:	00000593          	li	a1,0
80002ae0:	04068263          	beqz	a3,80002b24 <atol+0x78>
80002ae4:	00000513          	li	a0,0
80002ae8:	00178793          	add	a5,a5,1
80002aec:	00251713          	sll	a4,a0,0x2
80002af0:	fd068613          	add	a2,a3,-48
80002af4:	0007c683          	lbu	a3,0(a5)
80002af8:	00a70733          	add	a4,a4,a0
80002afc:	00171713          	sll	a4,a4,0x1
80002b00:	00e60533          	add	a0,a2,a4
80002b04:	fe0692e3          	bnez	a3,80002ae8 <atol+0x3c>
80002b08:	02058063          	beqz	a1,80002b28 <atol+0x7c>
80002b0c:	40a00533          	neg	a0,a0
80002b10:	00008067          	ret
80002b14:	0017c683          	lbu	a3,1(a5)
80002b18:	00000593          	li	a1,0
80002b1c:	00178793          	add	a5,a5,1
80002b20:	fc0692e3          	bnez	a3,80002ae4 <atol+0x38>
80002b24:	00000513          	li	a0,0
80002b28:	00008067          	ret
80002b2c:	0017c683          	lbu	a3,1(a5)
80002b30:	00100593          	li	a1,1
80002b34:	00178793          	add	a5,a5,1
80002b38:	fa0696e3          	bnez	a3,80002ae4 <atol+0x38>
80002b3c:	00000513          	li	a0,0
80002b40:	fe9ff06f          	j	80002b28 <atol+0x7c>

80002b44 <__moddi3>:
80002b44:	fc010113          	add	sp,sp,-64
80002b48:	02912a23          	sw	s1,52(sp)
80002b4c:	02112e23          	sw	ra,60(sp)
80002b50:	02812c23          	sw	s0,56(sp)
80002b54:	03212823          	sw	s2,48(sp)
80002b58:	03312623          	sw	s3,44(sp)
80002b5c:	03412423          	sw	s4,40(sp)
80002b60:	03512223          	sw	s5,36(sp)
80002b64:	03612023          	sw	s6,32(sp)
80002b68:	01712e23          	sw	s7,28(sp)
80002b6c:	01812c23          	sw	s8,24(sp)
80002b70:	01912a23          	sw	s9,20(sp)
80002b74:	01a12823          	sw	s10,16(sp)
80002b78:	01b12623          	sw	s11,12(sp)
80002b7c:	00000493          	li	s1,0
80002b80:	0005dc63          	bgez	a1,80002b98 <__moddi3+0x54>
80002b84:	00a037b3          	snez	a5,a0
80002b88:	40b005b3          	neg	a1,a1
80002b8c:	40f585b3          	sub	a1,a1,a5
80002b90:	40a00533          	neg	a0,a0
80002b94:	fff00493          	li	s1,-1
80002b98:	0006da63          	bgez	a3,80002bac <__moddi3+0x68>
80002b9c:	00c037b3          	snez	a5,a2
80002ba0:	40d006b3          	neg	a3,a3
80002ba4:	40f686b3          	sub	a3,a3,a5
80002ba8:	40c00633          	neg	a2,a2
80002bac:	00060a13          	mv	s4,a2
80002bb0:	00050413          	mv	s0,a0
80002bb4:	00058913          	mv	s2,a1
80002bb8:	26069663          	bnez	a3,80002e24 <__moddi3+0x2e0>
80002bbc:	00001697          	auipc	a3,0x1
80002bc0:	29868693          	add	a3,a3,664 # 80003e54 <__clz_tab>
80002bc4:	14c5fa63          	bgeu	a1,a2,80002d18 <__moddi3+0x1d4>
80002bc8:	000107b7          	lui	a5,0x10
80002bcc:	12f67c63          	bgeu	a2,a5,80002d04 <__moddi3+0x1c0>
80002bd0:	10063793          	sltiu	a5,a2,256
80002bd4:	0017c793          	xor	a5,a5,1
80002bd8:	00379793          	sll	a5,a5,0x3
80002bdc:	00f65733          	srl	a4,a2,a5
80002be0:	00e686b3          	add	a3,a3,a4
80002be4:	0006c703          	lbu	a4,0(a3)
80002be8:	00f707b3          	add	a5,a4,a5
80002bec:	02000713          	li	a4,32
80002bf0:	40f709b3          	sub	s3,a4,a5
80002bf4:	00f70c63          	beq	a4,a5,80002c0c <__moddi3+0xc8>
80002bf8:	013595b3          	sll	a1,a1,s3
80002bfc:	00f557b3          	srl	a5,a0,a5
80002c00:	01361a33          	sll	s4,a2,s3
80002c04:	00b7e933          	or	s2,a5,a1
80002c08:	01351433          	sll	s0,a0,s3
80002c0c:	010a5b13          	srl	s6,s4,0x10
80002c10:	000b0593          	mv	a1,s6
80002c14:	010a1b93          	sll	s7,s4,0x10
80002c18:	00090513          	mv	a0,s2
80002c1c:	701000ef          	jal	80003b1c <__hidden___udivsi3>
80002c20:	010bdb93          	srl	s7,s7,0x10
80002c24:	000b8593          	mv	a1,s7
80002c28:	6c9000ef          	jal	80003af0 <__mulsi3>
80002c2c:	00050a93          	mv	s5,a0
80002c30:	000b0593          	mv	a1,s6
80002c34:	00090513          	mv	a0,s2
80002c38:	72d000ef          	jal	80003b64 <__umodsi3>
80002c3c:	01051513          	sll	a0,a0,0x10
80002c40:	01045793          	srl	a5,s0,0x10
80002c44:	00a7e7b3          	or	a5,a5,a0
80002c48:	0157fa63          	bgeu	a5,s5,80002c5c <__moddi3+0x118>
80002c4c:	00fa07b3          	add	a5,s4,a5
80002c50:	0147e663          	bltu	a5,s4,80002c5c <__moddi3+0x118>
80002c54:	0157f463          	bgeu	a5,s5,80002c5c <__moddi3+0x118>
80002c58:	014787b3          	add	a5,a5,s4
80002c5c:	41578933          	sub	s2,a5,s5
80002c60:	000b0593          	mv	a1,s6
80002c64:	00090513          	mv	a0,s2
80002c68:	6b5000ef          	jal	80003b1c <__hidden___udivsi3>
80002c6c:	000b8593          	mv	a1,s7
80002c70:	681000ef          	jal	80003af0 <__mulsi3>
80002c74:	00050a93          	mv	s5,a0
80002c78:	000b0593          	mv	a1,s6
80002c7c:	00090513          	mv	a0,s2
80002c80:	6e5000ef          	jal	80003b64 <__umodsi3>
80002c84:	01041413          	sll	s0,s0,0x10
80002c88:	01051513          	sll	a0,a0,0x10
80002c8c:	01045413          	srl	s0,s0,0x10
80002c90:	00a46433          	or	s0,s0,a0
80002c94:	01547a63          	bgeu	s0,s5,80002ca8 <__moddi3+0x164>
80002c98:	008a0433          	add	s0,s4,s0
80002c9c:	01446663          	bltu	s0,s4,80002ca8 <__moddi3+0x164>
80002ca0:	01547463          	bgeu	s0,s5,80002ca8 <__moddi3+0x164>
80002ca4:	01440433          	add	s0,s0,s4
80002ca8:	41540433          	sub	s0,s0,s5
80002cac:	01345533          	srl	a0,s0,s3
80002cb0:	00000593          	li	a1,0
80002cb4:	00048a63          	beqz	s1,80002cc8 <__moddi3+0x184>
80002cb8:	00a037b3          	snez	a5,a0
80002cbc:	40b005b3          	neg	a1,a1
80002cc0:	40f585b3          	sub	a1,a1,a5
80002cc4:	40a00533          	neg	a0,a0
80002cc8:	03c12083          	lw	ra,60(sp)
80002ccc:	03812403          	lw	s0,56(sp)
80002cd0:	03412483          	lw	s1,52(sp)
80002cd4:	03012903          	lw	s2,48(sp)
80002cd8:	02c12983          	lw	s3,44(sp)
80002cdc:	02812a03          	lw	s4,40(sp)
80002ce0:	02412a83          	lw	s5,36(sp)
80002ce4:	02012b03          	lw	s6,32(sp)
80002ce8:	01c12b83          	lw	s7,28(sp)
80002cec:	01812c03          	lw	s8,24(sp)
80002cf0:	01412c83          	lw	s9,20(sp)
80002cf4:	01012d03          	lw	s10,16(sp)
80002cf8:	00c12d83          	lw	s11,12(sp)
80002cfc:	04010113          	add	sp,sp,64
80002d00:	00008067          	ret
80002d04:	01000737          	lui	a4,0x1000
80002d08:	01000793          	li	a5,16
80002d0c:	ece668e3          	bltu	a2,a4,80002bdc <__moddi3+0x98>
80002d10:	01800793          	li	a5,24
80002d14:	ec9ff06f          	j	80002bdc <__moddi3+0x98>
80002d18:	00000713          	li	a4,0
80002d1c:	00060c63          	beqz	a2,80002d34 <__moddi3+0x1f0>
80002d20:	000107b7          	lui	a5,0x10
80002d24:	0ef67663          	bgeu	a2,a5,80002e10 <__moddi3+0x2cc>
80002d28:	10063713          	sltiu	a4,a2,256
80002d2c:	00174713          	xor	a4,a4,1
80002d30:	00371713          	sll	a4,a4,0x3
80002d34:	00e657b3          	srl	a5,a2,a4
80002d38:	00f686b3          	add	a3,a3,a5
80002d3c:	0006c783          	lbu	a5,0(a3)
80002d40:	40c58933          	sub	s2,a1,a2
80002d44:	00e787b3          	add	a5,a5,a4
80002d48:	02000713          	li	a4,32
80002d4c:	40f709b3          	sub	s3,a4,a5
80002d50:	eaf70ee3          	beq	a4,a5,80002c0c <__moddi3+0xc8>
80002d54:	01361a33          	sll	s4,a2,s3
80002d58:	00f5d933          	srl	s2,a1,a5
80002d5c:	010a5b93          	srl	s7,s4,0x10
80002d60:	00f557b3          	srl	a5,a0,a5
80002d64:	013595b3          	sll	a1,a1,s3
80002d68:	00b7eab3          	or	s5,a5,a1
80002d6c:	01351433          	sll	s0,a0,s3
80002d70:	000b8593          	mv	a1,s7
80002d74:	010a1b13          	sll	s6,s4,0x10
80002d78:	00090513          	mv	a0,s2
80002d7c:	5a1000ef          	jal	80003b1c <__hidden___udivsi3>
80002d80:	010b5b13          	srl	s6,s6,0x10
80002d84:	000b0593          	mv	a1,s6
80002d88:	569000ef          	jal	80003af0 <__mulsi3>
80002d8c:	00050c13          	mv	s8,a0
80002d90:	000b8593          	mv	a1,s7
80002d94:	00090513          	mv	a0,s2
80002d98:	5cd000ef          	jal	80003b64 <__umodsi3>
80002d9c:	01051513          	sll	a0,a0,0x10
80002da0:	010ad713          	srl	a4,s5,0x10
80002da4:	00a76733          	or	a4,a4,a0
80002da8:	01877a63          	bgeu	a4,s8,80002dbc <__moddi3+0x278>
80002dac:	00ea0733          	add	a4,s4,a4
80002db0:	01476663          	bltu	a4,s4,80002dbc <__moddi3+0x278>
80002db4:	01877463          	bgeu	a4,s8,80002dbc <__moddi3+0x278>
80002db8:	01470733          	add	a4,a4,s4
80002dbc:	41870c33          	sub	s8,a4,s8
80002dc0:	000b8593          	mv	a1,s7
80002dc4:	000c0513          	mv	a0,s8
80002dc8:	555000ef          	jal	80003b1c <__hidden___udivsi3>
80002dcc:	000b0593          	mv	a1,s6
80002dd0:	521000ef          	jal	80003af0 <__mulsi3>
80002dd4:	00050b13          	mv	s6,a0
80002dd8:	000b8593          	mv	a1,s7
80002ddc:	000c0513          	mv	a0,s8
80002de0:	585000ef          	jal	80003b64 <__umodsi3>
80002de4:	010a9793          	sll	a5,s5,0x10
80002de8:	01051513          	sll	a0,a0,0x10
80002dec:	0107d793          	srl	a5,a5,0x10
80002df0:	00a7e7b3          	or	a5,a5,a0
80002df4:	0167fa63          	bgeu	a5,s6,80002e08 <__moddi3+0x2c4>
80002df8:	00fa07b3          	add	a5,s4,a5
80002dfc:	0147e663          	bltu	a5,s4,80002e08 <__moddi3+0x2c4>
80002e00:	0167f463          	bgeu	a5,s6,80002e08 <__moddi3+0x2c4>
80002e04:	014787b3          	add	a5,a5,s4
80002e08:	41678933          	sub	s2,a5,s6
80002e0c:	e01ff06f          	j	80002c0c <__moddi3+0xc8>
80002e10:	010007b7          	lui	a5,0x1000
80002e14:	01000713          	li	a4,16
80002e18:	f0f66ee3          	bltu	a2,a5,80002d34 <__moddi3+0x1f0>
80002e1c:	01800713          	li	a4,24
80002e20:	f15ff06f          	j	80002d34 <__moddi3+0x1f0>
80002e24:	e8d5e8e3          	bltu	a1,a3,80002cb4 <__moddi3+0x170>
80002e28:	000107b7          	lui	a5,0x10
80002e2c:	04f6fe63          	bgeu	a3,a5,80002e88 <__moddi3+0x344>
80002e30:	1006b793          	sltiu	a5,a3,256
80002e34:	0017c793          	xor	a5,a5,1
80002e38:	00379793          	sll	a5,a5,0x3
80002e3c:	00f6d833          	srl	a6,a3,a5
80002e40:	00001717          	auipc	a4,0x1
80002e44:	01470713          	add	a4,a4,20 # 80003e54 <__clz_tab>
80002e48:	01070733          	add	a4,a4,a6
80002e4c:	00074a03          	lbu	s4,0(a4)
80002e50:	00fa0a33          	add	s4,s4,a5
80002e54:	02000793          	li	a5,32
80002e58:	414789b3          	sub	s3,a5,s4
80002e5c:	05479063          	bne	a5,s4,80002e9c <__moddi3+0x358>
80002e60:	00b6e463          	bltu	a3,a1,80002e68 <__moddi3+0x324>
80002e64:	00c56c63          	bltu	a0,a2,80002e7c <__moddi3+0x338>
80002e68:	40c50ab3          	sub	s5,a0,a2
80002e6c:	40d586b3          	sub	a3,a1,a3
80002e70:	015535b3          	sltu	a1,a0,s5
80002e74:	000a8413          	mv	s0,s5
80002e78:	40b68933          	sub	s2,a3,a1
80002e7c:	00040513          	mv	a0,s0
80002e80:	00090593          	mv	a1,s2
80002e84:	e31ff06f          	j	80002cb4 <__moddi3+0x170>
80002e88:	01000737          	lui	a4,0x1000
80002e8c:	01000793          	li	a5,16
80002e90:	fae6e6e3          	bltu	a3,a4,80002e3c <__moddi3+0x2f8>
80002e94:	01800793          	li	a5,24
80002e98:	fa5ff06f          	j	80002e3c <__moddi3+0x2f8>
80002e9c:	013696b3          	sll	a3,a3,s3
80002ea0:	01465bb3          	srl	s7,a2,s4
80002ea4:	00dbebb3          	or	s7,s7,a3
80002ea8:	0145db33          	srl	s6,a1,s4
80002eac:	01455433          	srl	s0,a0,s4
80002eb0:	013595b3          	sll	a1,a1,s3
80002eb4:	010bdc13          	srl	s8,s7,0x10
80002eb8:	00b46433          	or	s0,s0,a1
80002ebc:	01351933          	sll	s2,a0,s3
80002ec0:	000c0593          	mv	a1,s8
80002ec4:	000b0513          	mv	a0,s6
80002ec8:	010b9c93          	sll	s9,s7,0x10
80002ecc:	01361ab3          	sll	s5,a2,s3
80002ed0:	010cdc93          	srl	s9,s9,0x10
80002ed4:	449000ef          	jal	80003b1c <__hidden___udivsi3>
80002ed8:	00050593          	mv	a1,a0
80002edc:	00050d93          	mv	s11,a0
80002ee0:	000c8513          	mv	a0,s9
80002ee4:	40d000ef          	jal	80003af0 <__mulsi3>
80002ee8:	00050d13          	mv	s10,a0
80002eec:	000c0593          	mv	a1,s8
80002ef0:	000b0513          	mv	a0,s6
80002ef4:	471000ef          	jal	80003b64 <__umodsi3>
80002ef8:	01051513          	sll	a0,a0,0x10
80002efc:	01045793          	srl	a5,s0,0x10
80002f00:	00a7e7b3          	or	a5,a5,a0
80002f04:	000d8b13          	mv	s6,s11
80002f08:	01a7fe63          	bgeu	a5,s10,80002f24 <__moddi3+0x3e0>
80002f0c:	00fb87b3          	add	a5,s7,a5
80002f10:	fffd8b13          	add	s6,s11,-1
80002f14:	0177e863          	bltu	a5,s7,80002f24 <__moddi3+0x3e0>
80002f18:	01a7f663          	bgeu	a5,s10,80002f24 <__moddi3+0x3e0>
80002f1c:	ffed8b13          	add	s6,s11,-2
80002f20:	017787b3          	add	a5,a5,s7
80002f24:	41a78d33          	sub	s10,a5,s10
80002f28:	000c0593          	mv	a1,s8
80002f2c:	000d0513          	mv	a0,s10
80002f30:	3ed000ef          	jal	80003b1c <__hidden___udivsi3>
80002f34:	00050593          	mv	a1,a0
80002f38:	00050d93          	mv	s11,a0
80002f3c:	000c8513          	mv	a0,s9
80002f40:	3b1000ef          	jal	80003af0 <__mulsi3>
80002f44:	000c0593          	mv	a1,s8
80002f48:	00050c93          	mv	s9,a0
80002f4c:	000d0513          	mv	a0,s10
80002f50:	415000ef          	jal	80003b64 <__umodsi3>
80002f54:	01041593          	sll	a1,s0,0x10
80002f58:	01051513          	sll	a0,a0,0x10
80002f5c:	0105d593          	srl	a1,a1,0x10
80002f60:	00a5e5b3          	or	a1,a1,a0
80002f64:	000d8713          	mv	a4,s11
80002f68:	0195fe63          	bgeu	a1,s9,80002f84 <__moddi3+0x440>
80002f6c:	00bb85b3          	add	a1,s7,a1
80002f70:	fffd8713          	add	a4,s11,-1
80002f74:	0175e863          	bltu	a1,s7,80002f84 <__moddi3+0x440>
80002f78:	0195f663          	bgeu	a1,s9,80002f84 <__moddi3+0x440>
80002f7c:	ffed8713          	add	a4,s11,-2
80002f80:	017585b3          	add	a1,a1,s7
80002f84:	00010337          	lui	t1,0x10
80002f88:	010b1b13          	sll	s6,s6,0x10
80002f8c:	00eb6b33          	or	s6,s6,a4
80002f90:	fff30713          	add	a4,t1,-1 # ffff <buflen.1+0xffbf>
80002f94:	00eb7e33          	and	t3,s6,a4
80002f98:	00eaf733          	and	a4,s5,a4
80002f9c:	419587b3          	sub	a5,a1,s9
80002fa0:	010b5b13          	srl	s6,s6,0x10
80002fa4:	010ad893          	srl	a7,s5,0x10
80002fa8:	000e0513          	mv	a0,t3
80002fac:	00070593          	mv	a1,a4
80002fb0:	341000ef          	jal	80003af0 <__mulsi3>
80002fb4:	00050813          	mv	a6,a0
80002fb8:	00088593          	mv	a1,a7
80002fbc:	000e0513          	mv	a0,t3
80002fc0:	331000ef          	jal	80003af0 <__mulsi3>
80002fc4:	00050413          	mv	s0,a0
80002fc8:	00070593          	mv	a1,a4
80002fcc:	000b0513          	mv	a0,s6
80002fd0:	321000ef          	jal	80003af0 <__mulsi3>
80002fd4:	00050713          	mv	a4,a0
80002fd8:	00088593          	mv	a1,a7
80002fdc:	000b0513          	mv	a0,s6
80002fe0:	311000ef          	jal	80003af0 <__mulsi3>
80002fe4:	00e40433          	add	s0,s0,a4
80002fe8:	01085693          	srl	a3,a6,0x10
80002fec:	00d40433          	add	s0,s0,a3
80002ff0:	00e47463          	bgeu	s0,a4,80002ff8 <__moddi3+0x4b4>
80002ff4:	00650533          	add	a0,a0,t1
80002ff8:	000106b7          	lui	a3,0x10
80002ffc:	fff68693          	add	a3,a3,-1 # ffff <buflen.1+0xffbf>
80003000:	01045713          	srl	a4,s0,0x10
80003004:	00d47433          	and	s0,s0,a3
80003008:	01041413          	sll	s0,s0,0x10
8000300c:	00d87833          	and	a6,a6,a3
80003010:	00a70733          	add	a4,a4,a0
80003014:	01040433          	add	s0,s0,a6
80003018:	00e7e663          	bltu	a5,a4,80003024 <__moddi3+0x4e0>
8000301c:	00e79e63          	bne	a5,a4,80003038 <__moddi3+0x4f4>
80003020:	00897c63          	bgeu	s2,s0,80003038 <__moddi3+0x4f4>
80003024:	41540ab3          	sub	s5,s0,s5
80003028:	015436b3          	sltu	a3,s0,s5
8000302c:	017686b3          	add	a3,a3,s7
80003030:	000a8413          	mv	s0,s5
80003034:	40d70733          	sub	a4,a4,a3
80003038:	40890433          	sub	s0,s2,s0
8000303c:	00893933          	sltu	s2,s2,s0
80003040:	40e785b3          	sub	a1,a5,a4
80003044:	412585b3          	sub	a1,a1,s2
80003048:	01459a33          	sll	s4,a1,s4
8000304c:	01345433          	srl	s0,s0,s3
80003050:	008a6533          	or	a0,s4,s0
80003054:	0135d5b3          	srl	a1,a1,s3
80003058:	c5dff06f          	j	80002cb4 <__moddi3+0x170>

8000305c <__udivdi3>:
8000305c:	fd010113          	add	sp,sp,-48
80003060:	01412c23          	sw	s4,24(sp)
80003064:	02112623          	sw	ra,44(sp)
80003068:	02812423          	sw	s0,40(sp)
8000306c:	02912223          	sw	s1,36(sp)
80003070:	03212023          	sw	s2,32(sp)
80003074:	01312e23          	sw	s3,28(sp)
80003078:	01512a23          	sw	s5,20(sp)
8000307c:	01612823          	sw	s6,16(sp)
80003080:	01712623          	sw	s7,12(sp)
80003084:	01812423          	sw	s8,8(sp)
80003088:	01912223          	sw	s9,4(sp)
8000308c:	00050a13          	mv	s4,a0
80003090:	38069463          	bnez	a3,80003418 <__udivdi3+0x3bc>
80003094:	00060993          	mv	s3,a2
80003098:	00050493          	mv	s1,a0
8000309c:	00001797          	auipc	a5,0x1
800030a0:	db878793          	add	a5,a5,-584 # 80003e54 <__clz_tab>
800030a4:	12c5f863          	bgeu	a1,a2,800031d4 <__udivdi3+0x178>
800030a8:	00010737          	lui	a4,0x10
800030ac:	00058913          	mv	s2,a1
800030b0:	10e67863          	bgeu	a2,a4,800031c0 <__udivdi3+0x164>
800030b4:	10063713          	sltiu	a4,a2,256
800030b8:	00174713          	xor	a4,a4,1
800030bc:	00371713          	sll	a4,a4,0x3
800030c0:	00e656b3          	srl	a3,a2,a4
800030c4:	00d787b3          	add	a5,a5,a3
800030c8:	0007c683          	lbu	a3,0(a5)
800030cc:	00e68733          	add	a4,a3,a4
800030d0:	02000693          	li	a3,32
800030d4:	40e687b3          	sub	a5,a3,a4
800030d8:	00e68c63          	beq	a3,a4,800030f0 <__udivdi3+0x94>
800030dc:	00f59933          	sll	s2,a1,a5
800030e0:	00ea5733          	srl	a4,s4,a4
800030e4:	00f619b3          	sll	s3,a2,a5
800030e8:	01276933          	or	s2,a4,s2
800030ec:	00fa14b3          	sll	s1,s4,a5
800030f0:	0109da93          	srl	s5,s3,0x10
800030f4:	000a8593          	mv	a1,s5
800030f8:	00090513          	mv	a0,s2
800030fc:	01099b13          	sll	s6,s3,0x10
80003100:	21d000ef          	jal	80003b1c <__hidden___udivsi3>
80003104:	010b5b13          	srl	s6,s6,0x10
80003108:	00050593          	mv	a1,a0
8000310c:	00050a13          	mv	s4,a0
80003110:	000b0513          	mv	a0,s6
80003114:	1dd000ef          	jal	80003af0 <__mulsi3>
80003118:	00050413          	mv	s0,a0
8000311c:	000a8593          	mv	a1,s5
80003120:	00090513          	mv	a0,s2
80003124:	241000ef          	jal	80003b64 <__umodsi3>
80003128:	01051513          	sll	a0,a0,0x10
8000312c:	0104d713          	srl	a4,s1,0x10
80003130:	00a76733          	or	a4,a4,a0
80003134:	000a0913          	mv	s2,s4
80003138:	00877e63          	bgeu	a4,s0,80003154 <__udivdi3+0xf8>
8000313c:	00e98733          	add	a4,s3,a4
80003140:	fffa0913          	add	s2,s4,-1
80003144:	01376863          	bltu	a4,s3,80003154 <__udivdi3+0xf8>
80003148:	00877663          	bgeu	a4,s0,80003154 <__udivdi3+0xf8>
8000314c:	ffea0913          	add	s2,s4,-2
80003150:	01370733          	add	a4,a4,s3
80003154:	40870433          	sub	s0,a4,s0
80003158:	000a8593          	mv	a1,s5
8000315c:	00040513          	mv	a0,s0
80003160:	1bd000ef          	jal	80003b1c <__hidden___udivsi3>
80003164:	00050593          	mv	a1,a0
80003168:	00050a13          	mv	s4,a0
8000316c:	000b0513          	mv	a0,s6
80003170:	181000ef          	jal	80003af0 <__mulsi3>
80003174:	00050b13          	mv	s6,a0
80003178:	000a8593          	mv	a1,s5
8000317c:	00040513          	mv	a0,s0
80003180:	1e5000ef          	jal	80003b64 <__umodsi3>
80003184:	01049493          	sll	s1,s1,0x10
80003188:	01051513          	sll	a0,a0,0x10
8000318c:	0104d493          	srl	s1,s1,0x10
80003190:	00a4e4b3          	or	s1,s1,a0
80003194:	000a0713          	mv	a4,s4
80003198:	0164fc63          	bgeu	s1,s6,800031b0 <__udivdi3+0x154>
8000319c:	009984b3          	add	s1,s3,s1
800031a0:	fffa0713          	add	a4,s4,-1
800031a4:	0134e663          	bltu	s1,s3,800031b0 <__udivdi3+0x154>
800031a8:	0164f463          	bgeu	s1,s6,800031b0 <__udivdi3+0x154>
800031ac:	ffea0713          	add	a4,s4,-2
800031b0:	01091793          	sll	a5,s2,0x10
800031b4:	00e7e7b3          	or	a5,a5,a4
800031b8:	00000913          	li	s2,0
800031bc:	1200006f          	j	800032dc <__udivdi3+0x280>
800031c0:	010006b7          	lui	a3,0x1000
800031c4:	01000713          	li	a4,16
800031c8:	eed66ce3          	bltu	a2,a3,800030c0 <__udivdi3+0x64>
800031cc:	01800713          	li	a4,24
800031d0:	ef1ff06f          	j	800030c0 <__udivdi3+0x64>
800031d4:	00000713          	li	a4,0
800031d8:	00060c63          	beqz	a2,800031f0 <__udivdi3+0x194>
800031dc:	00010737          	lui	a4,0x10
800031e0:	12e67c63          	bgeu	a2,a4,80003318 <__udivdi3+0x2bc>
800031e4:	10063713          	sltiu	a4,a2,256
800031e8:	00174713          	xor	a4,a4,1
800031ec:	00371713          	sll	a4,a4,0x3
800031f0:	00e656b3          	srl	a3,a2,a4
800031f4:	00d787b3          	add	a5,a5,a3
800031f8:	0007c783          	lbu	a5,0(a5)
800031fc:	02000693          	li	a3,32
80003200:	00e787b3          	add	a5,a5,a4
80003204:	40f68733          	sub	a4,a3,a5
80003208:	12f69263          	bne	a3,a5,8000332c <__udivdi3+0x2d0>
8000320c:	40c58a33          	sub	s4,a1,a2
80003210:	00100913          	li	s2,1
80003214:	0109db13          	srl	s6,s3,0x10
80003218:	000b0593          	mv	a1,s6
8000321c:	000a0513          	mv	a0,s4
80003220:	01099b93          	sll	s7,s3,0x10
80003224:	0f9000ef          	jal	80003b1c <__hidden___udivsi3>
80003228:	010bdb93          	srl	s7,s7,0x10
8000322c:	00050593          	mv	a1,a0
80003230:	00050c13          	mv	s8,a0
80003234:	000b8513          	mv	a0,s7
80003238:	0b9000ef          	jal	80003af0 <__mulsi3>
8000323c:	00050a93          	mv	s5,a0
80003240:	000b0593          	mv	a1,s6
80003244:	000a0513          	mv	a0,s4
80003248:	11d000ef          	jal	80003b64 <__umodsi3>
8000324c:	01051513          	sll	a0,a0,0x10
80003250:	0104d713          	srl	a4,s1,0x10
80003254:	00a76733          	or	a4,a4,a0
80003258:	000c0a13          	mv	s4,s8
8000325c:	01577e63          	bgeu	a4,s5,80003278 <__udivdi3+0x21c>
80003260:	00e98733          	add	a4,s3,a4
80003264:	fffc0a13          	add	s4,s8,-1
80003268:	01376863          	bltu	a4,s3,80003278 <__udivdi3+0x21c>
8000326c:	01577663          	bgeu	a4,s5,80003278 <__udivdi3+0x21c>
80003270:	ffec0a13          	add	s4,s8,-2
80003274:	01370733          	add	a4,a4,s3
80003278:	41570433          	sub	s0,a4,s5
8000327c:	000b0593          	mv	a1,s6
80003280:	00040513          	mv	a0,s0
80003284:	099000ef          	jal	80003b1c <__hidden___udivsi3>
80003288:	00050593          	mv	a1,a0
8000328c:	00050a93          	mv	s5,a0
80003290:	000b8513          	mv	a0,s7
80003294:	05d000ef          	jal	80003af0 <__mulsi3>
80003298:	00050b93          	mv	s7,a0
8000329c:	000b0593          	mv	a1,s6
800032a0:	00040513          	mv	a0,s0
800032a4:	0c1000ef          	jal	80003b64 <__umodsi3>
800032a8:	01049493          	sll	s1,s1,0x10
800032ac:	01051513          	sll	a0,a0,0x10
800032b0:	0104d493          	srl	s1,s1,0x10
800032b4:	00a4e4b3          	or	s1,s1,a0
800032b8:	000a8713          	mv	a4,s5
800032bc:	0174fc63          	bgeu	s1,s7,800032d4 <__udivdi3+0x278>
800032c0:	009984b3          	add	s1,s3,s1
800032c4:	fffa8713          	add	a4,s5,-1
800032c8:	0134e663          	bltu	s1,s3,800032d4 <__udivdi3+0x278>
800032cc:	0174f463          	bgeu	s1,s7,800032d4 <__udivdi3+0x278>
800032d0:	ffea8713          	add	a4,s5,-2
800032d4:	010a1793          	sll	a5,s4,0x10
800032d8:	00e7e7b3          	or	a5,a5,a4
800032dc:	02c12083          	lw	ra,44(sp)
800032e0:	02812403          	lw	s0,40(sp)
800032e4:	02412483          	lw	s1,36(sp)
800032e8:	01c12983          	lw	s3,28(sp)
800032ec:	01812a03          	lw	s4,24(sp)
800032f0:	01412a83          	lw	s5,20(sp)
800032f4:	01012b03          	lw	s6,16(sp)
800032f8:	00c12b83          	lw	s7,12(sp)
800032fc:	00812c03          	lw	s8,8(sp)
80003300:	00412c83          	lw	s9,4(sp)
80003304:	00090593          	mv	a1,s2
80003308:	00078513          	mv	a0,a5
8000330c:	02012903          	lw	s2,32(sp)
80003310:	03010113          	add	sp,sp,48
80003314:	00008067          	ret
80003318:	010006b7          	lui	a3,0x1000
8000331c:	01000713          	li	a4,16
80003320:	ecd668e3          	bltu	a2,a3,800031f0 <__udivdi3+0x194>
80003324:	01800713          	li	a4,24
80003328:	ec9ff06f          	j	800031f0 <__udivdi3+0x194>
8000332c:	00e619b3          	sll	s3,a2,a4
80003330:	00f5d933          	srl	s2,a1,a5
80003334:	0109db93          	srl	s7,s3,0x10
80003338:	00e595b3          	sll	a1,a1,a4
8000333c:	00fa57b3          	srl	a5,s4,a5
80003340:	00b7eab3          	or	s5,a5,a1
80003344:	00ea14b3          	sll	s1,s4,a4
80003348:	000b8593          	mv	a1,s7
8000334c:	00090513          	mv	a0,s2
80003350:	01099a13          	sll	s4,s3,0x10
80003354:	7c8000ef          	jal	80003b1c <__hidden___udivsi3>
80003358:	010a5a13          	srl	s4,s4,0x10
8000335c:	00050593          	mv	a1,a0
80003360:	00050b13          	mv	s6,a0
80003364:	000a0513          	mv	a0,s4
80003368:	788000ef          	jal	80003af0 <__mulsi3>
8000336c:	00050413          	mv	s0,a0
80003370:	000b8593          	mv	a1,s7
80003374:	00090513          	mv	a0,s2
80003378:	7ec000ef          	jal	80003b64 <__umodsi3>
8000337c:	01051513          	sll	a0,a0,0x10
80003380:	010ad713          	srl	a4,s5,0x10
80003384:	00a76733          	or	a4,a4,a0
80003388:	000b0913          	mv	s2,s6
8000338c:	00877e63          	bgeu	a4,s0,800033a8 <__udivdi3+0x34c>
80003390:	00e98733          	add	a4,s3,a4
80003394:	fffb0913          	add	s2,s6,-1
80003398:	01376863          	bltu	a4,s3,800033a8 <__udivdi3+0x34c>
8000339c:	00877663          	bgeu	a4,s0,800033a8 <__udivdi3+0x34c>
800033a0:	ffeb0913          	add	s2,s6,-2
800033a4:	01370733          	add	a4,a4,s3
800033a8:	40870433          	sub	s0,a4,s0
800033ac:	000b8593          	mv	a1,s7
800033b0:	00040513          	mv	a0,s0
800033b4:	768000ef          	jal	80003b1c <__hidden___udivsi3>
800033b8:	00050593          	mv	a1,a0
800033bc:	00050b13          	mv	s6,a0
800033c0:	000a0513          	mv	a0,s4
800033c4:	72c000ef          	jal	80003af0 <__mulsi3>
800033c8:	00050a13          	mv	s4,a0
800033cc:	000b8593          	mv	a1,s7
800033d0:	00040513          	mv	a0,s0
800033d4:	790000ef          	jal	80003b64 <__umodsi3>
800033d8:	010a9793          	sll	a5,s5,0x10
800033dc:	01051513          	sll	a0,a0,0x10
800033e0:	0107d793          	srl	a5,a5,0x10
800033e4:	00a7e7b3          	or	a5,a5,a0
800033e8:	000b0713          	mv	a4,s6
800033ec:	0147fe63          	bgeu	a5,s4,80003408 <__udivdi3+0x3ac>
800033f0:	00f987b3          	add	a5,s3,a5
800033f4:	fffb0713          	add	a4,s6,-1
800033f8:	0137e863          	bltu	a5,s3,80003408 <__udivdi3+0x3ac>
800033fc:	0147f663          	bgeu	a5,s4,80003408 <__udivdi3+0x3ac>
80003400:	ffeb0713          	add	a4,s6,-2
80003404:	013787b3          	add	a5,a5,s3
80003408:	01091913          	sll	s2,s2,0x10
8000340c:	41478a33          	sub	s4,a5,s4
80003410:	00e96933          	or	s2,s2,a4
80003414:	e01ff06f          	j	80003214 <__udivdi3+0x1b8>
80003418:	1ed5ee63          	bltu	a1,a3,80003614 <__udivdi3+0x5b8>
8000341c:	000107b7          	lui	a5,0x10
80003420:	04f6f463          	bgeu	a3,a5,80003468 <__udivdi3+0x40c>
80003424:	1006b713          	sltiu	a4,a3,256
80003428:	00174713          	xor	a4,a4,1
8000342c:	00371713          	sll	a4,a4,0x3
80003430:	00e6d533          	srl	a0,a3,a4
80003434:	00001797          	auipc	a5,0x1
80003438:	a2078793          	add	a5,a5,-1504 # 80003e54 <__clz_tab>
8000343c:	00a787b3          	add	a5,a5,a0
80003440:	0007c803          	lbu	a6,0(a5)
80003444:	02000793          	li	a5,32
80003448:	00e80833          	add	a6,a6,a4
8000344c:	41078933          	sub	s2,a5,a6
80003450:	03079663          	bne	a5,a6,8000347c <__udivdi3+0x420>
80003454:	00100793          	li	a5,1
80003458:	e8b6e2e3          	bltu	a3,a1,800032dc <__udivdi3+0x280>
8000345c:	00ca37b3          	sltu	a5,s4,a2
80003460:	0017c793          	xor	a5,a5,1
80003464:	e79ff06f          	j	800032dc <__udivdi3+0x280>
80003468:	010007b7          	lui	a5,0x1000
8000346c:	01000713          	li	a4,16
80003470:	fcf6e0e3          	bltu	a3,a5,80003430 <__udivdi3+0x3d4>
80003474:	01800713          	li	a4,24
80003478:	fb9ff06f          	j	80003430 <__udivdi3+0x3d4>
8000347c:	012696b3          	sll	a3,a3,s2
80003480:	01065b33          	srl	s6,a2,a6
80003484:	00db6b33          	or	s6,s6,a3
80003488:	0105d4b3          	srl	s1,a1,a6
8000348c:	010b5c13          	srl	s8,s6,0x10
80003490:	010a5833          	srl	a6,s4,a6
80003494:	012595b3          	sll	a1,a1,s2
80003498:	00b869b3          	or	s3,a6,a1
8000349c:	00048513          	mv	a0,s1
800034a0:	000c0593          	mv	a1,s8
800034a4:	010b1b93          	sll	s7,s6,0x10
800034a8:	01261433          	sll	s0,a2,s2
800034ac:	010bdb93          	srl	s7,s7,0x10
800034b0:	66c000ef          	jal	80003b1c <__hidden___udivsi3>
800034b4:	00050593          	mv	a1,a0
800034b8:	00050c93          	mv	s9,a0
800034bc:	000b8513          	mv	a0,s7
800034c0:	630000ef          	jal	80003af0 <__mulsi3>
800034c4:	00050a93          	mv	s5,a0
800034c8:	000c0593          	mv	a1,s8
800034cc:	00048513          	mv	a0,s1
800034d0:	694000ef          	jal	80003b64 <__umodsi3>
800034d4:	01051513          	sll	a0,a0,0x10
800034d8:	0109d693          	srl	a3,s3,0x10
800034dc:	00a6e6b3          	or	a3,a3,a0
800034e0:	000c8493          	mv	s1,s9
800034e4:	0156fe63          	bgeu	a3,s5,80003500 <__udivdi3+0x4a4>
800034e8:	00db06b3          	add	a3,s6,a3
800034ec:	fffc8493          	add	s1,s9,-1
800034f0:	0166e863          	bltu	a3,s6,80003500 <__udivdi3+0x4a4>
800034f4:	0156f663          	bgeu	a3,s5,80003500 <__udivdi3+0x4a4>
800034f8:	ffec8493          	add	s1,s9,-2
800034fc:	016686b3          	add	a3,a3,s6
80003500:	41568ab3          	sub	s5,a3,s5
80003504:	000c0593          	mv	a1,s8
80003508:	000a8513          	mv	a0,s5
8000350c:	610000ef          	jal	80003b1c <__hidden___udivsi3>
80003510:	00050593          	mv	a1,a0
80003514:	00050c93          	mv	s9,a0
80003518:	000b8513          	mv	a0,s7
8000351c:	5d4000ef          	jal	80003af0 <__mulsi3>
80003520:	00050b93          	mv	s7,a0
80003524:	000c0593          	mv	a1,s8
80003528:	000a8513          	mv	a0,s5
8000352c:	638000ef          	jal	80003b64 <__umodsi3>
80003530:	01099713          	sll	a4,s3,0x10
80003534:	01051513          	sll	a0,a0,0x10
80003538:	01075713          	srl	a4,a4,0x10
8000353c:	00a76733          	or	a4,a4,a0
80003540:	000c8693          	mv	a3,s9
80003544:	01777e63          	bgeu	a4,s7,80003560 <__udivdi3+0x504>
80003548:	00eb0733          	add	a4,s6,a4
8000354c:	fffc8693          	add	a3,s9,-1
80003550:	01676863          	bltu	a4,s6,80003560 <__udivdi3+0x504>
80003554:	01777663          	bgeu	a4,s7,80003560 <__udivdi3+0x504>
80003558:	ffec8693          	add	a3,s9,-2
8000355c:	01670733          	add	a4,a4,s6
80003560:	01049793          	sll	a5,s1,0x10
80003564:	00010e37          	lui	t3,0x10
80003568:	00d7e7b3          	or	a5,a5,a3
8000356c:	fffe0313          	add	t1,t3,-1 # ffff <buflen.1+0xffbf>
80003570:	0067f8b3          	and	a7,a5,t1
80003574:	00647333          	and	t1,s0,t1
80003578:	41770733          	sub	a4,a4,s7
8000357c:	0107de93          	srl	t4,a5,0x10
80003580:	01045413          	srl	s0,s0,0x10
80003584:	00088513          	mv	a0,a7
80003588:	00030593          	mv	a1,t1
8000358c:	564000ef          	jal	80003af0 <__mulsi3>
80003590:	00050813          	mv	a6,a0
80003594:	00040593          	mv	a1,s0
80003598:	00088513          	mv	a0,a7
8000359c:	554000ef          	jal	80003af0 <__mulsi3>
800035a0:	00050893          	mv	a7,a0
800035a4:	00030593          	mv	a1,t1
800035a8:	000e8513          	mv	a0,t4
800035ac:	544000ef          	jal	80003af0 <__mulsi3>
800035b0:	00050313          	mv	t1,a0
800035b4:	00040593          	mv	a1,s0
800035b8:	000e8513          	mv	a0,t4
800035bc:	534000ef          	jal	80003af0 <__mulsi3>
800035c0:	01085693          	srl	a3,a6,0x10
800035c4:	006888b3          	add	a7,a7,t1
800035c8:	011686b3          	add	a3,a3,a7
800035cc:	00050613          	mv	a2,a0
800035d0:	0066f463          	bgeu	a3,t1,800035d8 <__udivdi3+0x57c>
800035d4:	01c50633          	add	a2,a0,t3
800035d8:	0106d593          	srl	a1,a3,0x10
800035dc:	00c58633          	add	a2,a1,a2
800035e0:	02c76663          	bltu	a4,a2,8000360c <__udivdi3+0x5b0>
800035e4:	bcc71ae3          	bne	a4,a2,800031b8 <__udivdi3+0x15c>
800035e8:	00010637          	lui	a2,0x10
800035ec:	fff60613          	add	a2,a2,-1 # ffff <buflen.1+0xffbf>
800035f0:	00c6f6b3          	and	a3,a3,a2
800035f4:	01069693          	sll	a3,a3,0x10
800035f8:	00c87833          	and	a6,a6,a2
800035fc:	012a1733          	sll	a4,s4,s2
80003600:	010686b3          	add	a3,a3,a6
80003604:	00000913          	li	s2,0
80003608:	ccd77ae3          	bgeu	a4,a3,800032dc <__udivdi3+0x280>
8000360c:	fff78793          	add	a5,a5,-1 # ffffff <buflen.1+0xffffbf>
80003610:	ba9ff06f          	j	800031b8 <__udivdi3+0x15c>
80003614:	00000913          	li	s2,0
80003618:	00000793          	li	a5,0
8000361c:	cc1ff06f          	j	800032dc <__udivdi3+0x280>

80003620 <__umoddi3>:
80003620:	fd010113          	add	sp,sp,-48
80003624:	02812423          	sw	s0,40(sp)
80003628:	02912223          	sw	s1,36(sp)
8000362c:	02112623          	sw	ra,44(sp)
80003630:	03212023          	sw	s2,32(sp)
80003634:	01312e23          	sw	s3,28(sp)
80003638:	01412c23          	sw	s4,24(sp)
8000363c:	01512a23          	sw	s5,20(sp)
80003640:	01612823          	sw	s6,16(sp)
80003644:	01712623          	sw	s7,12(sp)
80003648:	01812423          	sw	s8,8(sp)
8000364c:	01912223          	sw	s9,4(sp)
80003650:	01a12023          	sw	s10,0(sp)
80003654:	00050413          	mv	s0,a0
80003658:	00058493          	mv	s1,a1
8000365c:	24069c63          	bnez	a3,800038b4 <__umoddi3+0x294>
80003660:	00060993          	mv	s3,a2
80003664:	00000697          	auipc	a3,0x0
80003668:	7f068693          	add	a3,a3,2032 # 80003e54 <__clz_tab>
8000366c:	12c5fe63          	bgeu	a1,a2,800037a8 <__umoddi3+0x188>
80003670:	000107b7          	lui	a5,0x10
80003674:	12f67063          	bgeu	a2,a5,80003794 <__umoddi3+0x174>
80003678:	10063793          	sltiu	a5,a2,256
8000367c:	0017c793          	xor	a5,a5,1
80003680:	00379793          	sll	a5,a5,0x3
80003684:	00f65733          	srl	a4,a2,a5
80003688:	00e686b3          	add	a3,a3,a4
8000368c:	0006c703          	lbu	a4,0(a3)
80003690:	00f707b3          	add	a5,a4,a5
80003694:	02000713          	li	a4,32
80003698:	40f70933          	sub	s2,a4,a5
8000369c:	00f70c63          	beq	a4,a5,800036b4 <__umoddi3+0x94>
800036a0:	012594b3          	sll	s1,a1,s2
800036a4:	00f557b3          	srl	a5,a0,a5
800036a8:	012619b3          	sll	s3,a2,s2
800036ac:	0097e4b3          	or	s1,a5,s1
800036b0:	01251433          	sll	s0,a0,s2
800036b4:	0109da93          	srl	s5,s3,0x10
800036b8:	000a8593          	mv	a1,s5
800036bc:	01099b13          	sll	s6,s3,0x10
800036c0:	00048513          	mv	a0,s1
800036c4:	458000ef          	jal	80003b1c <__hidden___udivsi3>
800036c8:	010b5b13          	srl	s6,s6,0x10
800036cc:	000b0593          	mv	a1,s6
800036d0:	420000ef          	jal	80003af0 <__mulsi3>
800036d4:	00050a13          	mv	s4,a0
800036d8:	000a8593          	mv	a1,s5
800036dc:	00048513          	mv	a0,s1
800036e0:	484000ef          	jal	80003b64 <__umodsi3>
800036e4:	01051513          	sll	a0,a0,0x10
800036e8:	01045793          	srl	a5,s0,0x10
800036ec:	00a7e7b3          	or	a5,a5,a0
800036f0:	0147fa63          	bgeu	a5,s4,80003704 <__umoddi3+0xe4>
800036f4:	00f987b3          	add	a5,s3,a5
800036f8:	0137e663          	bltu	a5,s3,80003704 <__umoddi3+0xe4>
800036fc:	0147f463          	bgeu	a5,s4,80003704 <__umoddi3+0xe4>
80003700:	013787b3          	add	a5,a5,s3
80003704:	414784b3          	sub	s1,a5,s4
80003708:	000a8593          	mv	a1,s5
8000370c:	00048513          	mv	a0,s1
80003710:	40c000ef          	jal	80003b1c <__hidden___udivsi3>
80003714:	000b0593          	mv	a1,s6
80003718:	3d8000ef          	jal	80003af0 <__mulsi3>
8000371c:	00050a13          	mv	s4,a0
80003720:	000a8593          	mv	a1,s5
80003724:	00048513          	mv	a0,s1
80003728:	43c000ef          	jal	80003b64 <__umodsi3>
8000372c:	01041413          	sll	s0,s0,0x10
80003730:	01051513          	sll	a0,a0,0x10
80003734:	01045413          	srl	s0,s0,0x10
80003738:	00a46433          	or	s0,s0,a0
8000373c:	01447a63          	bgeu	s0,s4,80003750 <__umoddi3+0x130>
80003740:	00898433          	add	s0,s3,s0
80003744:	01346663          	bltu	s0,s3,80003750 <__umoddi3+0x130>
80003748:	01447463          	bgeu	s0,s4,80003750 <__umoddi3+0x130>
8000374c:	01340433          	add	s0,s0,s3
80003750:	41440433          	sub	s0,s0,s4
80003754:	01245533          	srl	a0,s0,s2
80003758:	00000593          	li	a1,0
8000375c:	02c12083          	lw	ra,44(sp)
80003760:	02812403          	lw	s0,40(sp)
80003764:	02412483          	lw	s1,36(sp)
80003768:	02012903          	lw	s2,32(sp)
8000376c:	01c12983          	lw	s3,28(sp)
80003770:	01812a03          	lw	s4,24(sp)
80003774:	01412a83          	lw	s5,20(sp)
80003778:	01012b03          	lw	s6,16(sp)
8000377c:	00c12b83          	lw	s7,12(sp)
80003780:	00812c03          	lw	s8,8(sp)
80003784:	00412c83          	lw	s9,4(sp)
80003788:	00012d03          	lw	s10,0(sp)
8000378c:	03010113          	add	sp,sp,48
80003790:	00008067          	ret
80003794:	01000737          	lui	a4,0x1000
80003798:	01000793          	li	a5,16
8000379c:	eee664e3          	bltu	a2,a4,80003684 <__umoddi3+0x64>
800037a0:	01800793          	li	a5,24
800037a4:	ee1ff06f          	j	80003684 <__umoddi3+0x64>
800037a8:	00000713          	li	a4,0
800037ac:	00060c63          	beqz	a2,800037c4 <__umoddi3+0x1a4>
800037b0:	000107b7          	lui	a5,0x10
800037b4:	0ef67663          	bgeu	a2,a5,800038a0 <__umoddi3+0x280>
800037b8:	10063713          	sltiu	a4,a2,256
800037bc:	00174713          	xor	a4,a4,1
800037c0:	00371713          	sll	a4,a4,0x3
800037c4:	00e657b3          	srl	a5,a2,a4
800037c8:	00f686b3          	add	a3,a3,a5
800037cc:	0006c783          	lbu	a5,0(a3)
800037d0:	40c584b3          	sub	s1,a1,a2
800037d4:	00e787b3          	add	a5,a5,a4
800037d8:	02000713          	li	a4,32
800037dc:	40f70933          	sub	s2,a4,a5
800037e0:	ecf70ae3          	beq	a4,a5,800036b4 <__umoddi3+0x94>
800037e4:	012619b3          	sll	s3,a2,s2
800037e8:	00f5dbb3          	srl	s7,a1,a5
800037ec:	0109db13          	srl	s6,s3,0x10
800037f0:	00f557b3          	srl	a5,a0,a5
800037f4:	012595b3          	sll	a1,a1,s2
800037f8:	00b7ea33          	or	s4,a5,a1
800037fc:	01251433          	sll	s0,a0,s2
80003800:	000b0593          	mv	a1,s6
80003804:	01099a93          	sll	s5,s3,0x10
80003808:	000b8513          	mv	a0,s7
8000380c:	310000ef          	jal	80003b1c <__hidden___udivsi3>
80003810:	010ada93          	srl	s5,s5,0x10
80003814:	000a8593          	mv	a1,s5
80003818:	2d8000ef          	jal	80003af0 <__mulsi3>
8000381c:	00050493          	mv	s1,a0
80003820:	000b0593          	mv	a1,s6
80003824:	000b8513          	mv	a0,s7
80003828:	33c000ef          	jal	80003b64 <__umodsi3>
8000382c:	01051513          	sll	a0,a0,0x10
80003830:	010a5713          	srl	a4,s4,0x10
80003834:	00a76733          	or	a4,a4,a0
80003838:	00977a63          	bgeu	a4,s1,8000384c <__umoddi3+0x22c>
8000383c:	00e98733          	add	a4,s3,a4
80003840:	01376663          	bltu	a4,s3,8000384c <__umoddi3+0x22c>
80003844:	00977463          	bgeu	a4,s1,8000384c <__umoddi3+0x22c>
80003848:	01370733          	add	a4,a4,s3
8000384c:	409704b3          	sub	s1,a4,s1
80003850:	000b0593          	mv	a1,s6
80003854:	00048513          	mv	a0,s1
80003858:	2c4000ef          	jal	80003b1c <__hidden___udivsi3>
8000385c:	000a8593          	mv	a1,s5
80003860:	290000ef          	jal	80003af0 <__mulsi3>
80003864:	00050a93          	mv	s5,a0
80003868:	000b0593          	mv	a1,s6
8000386c:	00048513          	mv	a0,s1
80003870:	2f4000ef          	jal	80003b64 <__umodsi3>
80003874:	010a1793          	sll	a5,s4,0x10
80003878:	01051513          	sll	a0,a0,0x10
8000387c:	0107d793          	srl	a5,a5,0x10
80003880:	00a7e7b3          	or	a5,a5,a0
80003884:	0157fa63          	bgeu	a5,s5,80003898 <__umoddi3+0x278>
80003888:	00f987b3          	add	a5,s3,a5
8000388c:	0137e663          	bltu	a5,s3,80003898 <__umoddi3+0x278>
80003890:	0157f463          	bgeu	a5,s5,80003898 <__umoddi3+0x278>
80003894:	013787b3          	add	a5,a5,s3
80003898:	415784b3          	sub	s1,a5,s5
8000389c:	e19ff06f          	j	800036b4 <__umoddi3+0x94>
800038a0:	010007b7          	lui	a5,0x1000
800038a4:	01000713          	li	a4,16
800038a8:	f0f66ee3          	bltu	a2,a5,800037c4 <__umoddi3+0x1a4>
800038ac:	01800713          	li	a4,24
800038b0:	f15ff06f          	j	800037c4 <__umoddi3+0x1a4>
800038b4:	ead5e4e3          	bltu	a1,a3,8000375c <__umoddi3+0x13c>
800038b8:	000107b7          	lui	a5,0x10
800038bc:	04f6fe63          	bgeu	a3,a5,80003918 <__umoddi3+0x2f8>
800038c0:	1006b793          	sltiu	a5,a3,256
800038c4:	0017c793          	xor	a5,a5,1
800038c8:	00379793          	sll	a5,a5,0x3
800038cc:	00f6d833          	srl	a6,a3,a5
800038d0:	00000717          	auipc	a4,0x0
800038d4:	58470713          	add	a4,a4,1412 # 80003e54 <__clz_tab>
800038d8:	01070733          	add	a4,a4,a6
800038dc:	00074a83          	lbu	s5,0(a4)
800038e0:	00fa8ab3          	add	s5,s5,a5
800038e4:	02000793          	li	a5,32
800038e8:	41578a33          	sub	s4,a5,s5
800038ec:	05579063          	bne	a5,s5,8000392c <__umoddi3+0x30c>
800038f0:	00b6e463          	bltu	a3,a1,800038f8 <__umoddi3+0x2d8>
800038f4:	00c56c63          	bltu	a0,a2,8000390c <__umoddi3+0x2ec>
800038f8:	40c50933          	sub	s2,a0,a2
800038fc:	40d586b3          	sub	a3,a1,a3
80003900:	012534b3          	sltu	s1,a0,s2
80003904:	00090413          	mv	s0,s2
80003908:	409684b3          	sub	s1,a3,s1
8000390c:	00040513          	mv	a0,s0
80003910:	00048593          	mv	a1,s1
80003914:	e49ff06f          	j	8000375c <__umoddi3+0x13c>
80003918:	01000737          	lui	a4,0x1000
8000391c:	01000793          	li	a5,16
80003920:	fae6e6e3          	bltu	a3,a4,800038cc <__umoddi3+0x2ac>
80003924:	01800793          	li	a5,24
80003928:	fa5ff06f          	j	800038cc <__umoddi3+0x2ac>
8000392c:	014696b3          	sll	a3,a3,s4
80003930:	01565bb3          	srl	s7,a2,s5
80003934:	00dbebb3          	or	s7,s7,a3
80003938:	0155d9b3          	srl	s3,a1,s5
8000393c:	01555433          	srl	s0,a0,s5
80003940:	014595b3          	sll	a1,a1,s4
80003944:	010bd493          	srl	s1,s7,0x10
80003948:	00b46433          	or	s0,s0,a1
8000394c:	01451b33          	sll	s6,a0,s4
80003950:	00048593          	mv	a1,s1
80003954:	00098513          	mv	a0,s3
80003958:	010b9c13          	sll	s8,s7,0x10
8000395c:	01461933          	sll	s2,a2,s4
80003960:	010c5c13          	srl	s8,s8,0x10
80003964:	1b8000ef          	jal	80003b1c <__hidden___udivsi3>
80003968:	00050593          	mv	a1,a0
8000396c:	00050d13          	mv	s10,a0
80003970:	000c0513          	mv	a0,s8
80003974:	17c000ef          	jal	80003af0 <__mulsi3>
80003978:	00050c93          	mv	s9,a0
8000397c:	00048593          	mv	a1,s1
80003980:	00098513          	mv	a0,s3
80003984:	1e0000ef          	jal	80003b64 <__umodsi3>
80003988:	01051513          	sll	a0,a0,0x10
8000398c:	01045793          	srl	a5,s0,0x10
80003990:	00a7e7b3          	or	a5,a5,a0
80003994:	000d0993          	mv	s3,s10
80003998:	0197fe63          	bgeu	a5,s9,800039b4 <__umoddi3+0x394>
8000399c:	00fb87b3          	add	a5,s7,a5
800039a0:	fffd0993          	add	s3,s10,-1
800039a4:	0177e863          	bltu	a5,s7,800039b4 <__umoddi3+0x394>
800039a8:	0197f663          	bgeu	a5,s9,800039b4 <__umoddi3+0x394>
800039ac:	ffed0993          	add	s3,s10,-2
800039b0:	017787b3          	add	a5,a5,s7
800039b4:	41978cb3          	sub	s9,a5,s9
800039b8:	00048593          	mv	a1,s1
800039bc:	000c8513          	mv	a0,s9
800039c0:	15c000ef          	jal	80003b1c <__hidden___udivsi3>
800039c4:	00050593          	mv	a1,a0
800039c8:	00050d13          	mv	s10,a0
800039cc:	000c0513          	mv	a0,s8
800039d0:	120000ef          	jal	80003af0 <__mulsi3>
800039d4:	00048593          	mv	a1,s1
800039d8:	00050c13          	mv	s8,a0
800039dc:	000c8513          	mv	a0,s9
800039e0:	184000ef          	jal	80003b64 <__umodsi3>
800039e4:	01041593          	sll	a1,s0,0x10
800039e8:	01051513          	sll	a0,a0,0x10
800039ec:	0105d593          	srl	a1,a1,0x10
800039f0:	00a5e5b3          	or	a1,a1,a0
800039f4:	000d0793          	mv	a5,s10
800039f8:	0185fe63          	bgeu	a1,s8,80003a14 <__umoddi3+0x3f4>
800039fc:	00bb85b3          	add	a1,s7,a1
80003a00:	fffd0793          	add	a5,s10,-1
80003a04:	0175e863          	bltu	a1,s7,80003a14 <__umoddi3+0x3f4>
80003a08:	0185f663          	bgeu	a1,s8,80003a14 <__umoddi3+0x3f4>
80003a0c:	ffed0793          	add	a5,s10,-2
80003a10:	017585b3          	add	a1,a1,s7
80003a14:	00010e37          	lui	t3,0x10
80003a18:	01099993          	sll	s3,s3,0x10
80003a1c:	00f9e9b3          	or	s3,s3,a5
80003a20:	fffe0793          	add	a5,t3,-1 # ffff <buflen.1+0xffbf>
80003a24:	00f9f733          	and	a4,s3,a5
80003a28:	00f977b3          	and	a5,s2,a5
80003a2c:	418584b3          	sub	s1,a1,s8
80003a30:	0109d993          	srl	s3,s3,0x10
80003a34:	01095313          	srl	t1,s2,0x10
80003a38:	00070513          	mv	a0,a4
80003a3c:	00078593          	mv	a1,a5
80003a40:	0b0000ef          	jal	80003af0 <__mulsi3>
80003a44:	00050813          	mv	a6,a0
80003a48:	00030593          	mv	a1,t1
80003a4c:	00070513          	mv	a0,a4
80003a50:	0a0000ef          	jal	80003af0 <__mulsi3>
80003a54:	00050713          	mv	a4,a0
80003a58:	00078593          	mv	a1,a5
80003a5c:	00098513          	mv	a0,s3
80003a60:	090000ef          	jal	80003af0 <__mulsi3>
80003a64:	00050893          	mv	a7,a0
80003a68:	00030593          	mv	a1,t1
80003a6c:	00098513          	mv	a0,s3
80003a70:	080000ef          	jal	80003af0 <__mulsi3>
80003a74:	01085793          	srl	a5,a6,0x10
80003a78:	01170733          	add	a4,a4,a7
80003a7c:	00e787b3          	add	a5,a5,a4
80003a80:	00050693          	mv	a3,a0
80003a84:	0117f463          	bgeu	a5,a7,80003a8c <__umoddi3+0x46c>
80003a88:	01c506b3          	add	a3,a0,t3
80003a8c:	0107d713          	srl	a4,a5,0x10
80003a90:	00d70733          	add	a4,a4,a3
80003a94:	000106b7          	lui	a3,0x10
80003a98:	fff68693          	add	a3,a3,-1 # ffff <buflen.1+0xffbf>
80003a9c:	00d7f7b3          	and	a5,a5,a3
80003aa0:	01079793          	sll	a5,a5,0x10
80003aa4:	00d87833          	and	a6,a6,a3
80003aa8:	010787b3          	add	a5,a5,a6
80003aac:	00e4e663          	bltu	s1,a4,80003ab8 <__umoddi3+0x498>
80003ab0:	00e49e63          	bne	s1,a4,80003acc <__umoddi3+0x4ac>
80003ab4:	00fb7c63          	bgeu	s6,a5,80003acc <__umoddi3+0x4ac>
80003ab8:	41278933          	sub	s2,a5,s2
80003abc:	0127b6b3          	sltu	a3,a5,s2
80003ac0:	017686b3          	add	a3,a3,s7
80003ac4:	00090793          	mv	a5,s2
80003ac8:	40d70733          	sub	a4,a4,a3
80003acc:	40fb07b3          	sub	a5,s6,a5
80003ad0:	00fb3b33          	sltu	s6,s6,a5
80003ad4:	40e485b3          	sub	a1,s1,a4
80003ad8:	416585b3          	sub	a1,a1,s6
80003adc:	01559ab3          	sll	s5,a1,s5
80003ae0:	0147d7b3          	srl	a5,a5,s4
80003ae4:	00fae533          	or	a0,s5,a5
80003ae8:	0145d5b3          	srl	a1,a1,s4
80003aec:	c71ff06f          	j	8000375c <__umoddi3+0x13c>

80003af0 <__mulsi3>:
80003af0:	00050613          	mv	a2,a0
80003af4:	00000513          	li	a0,0
80003af8:	0015f693          	and	a3,a1,1
80003afc:	00068463          	beqz	a3,80003b04 <__mulsi3+0x14>
80003b00:	00c50533          	add	a0,a0,a2
80003b04:	0015d593          	srl	a1,a1,0x1
80003b08:	00161613          	sll	a2,a2,0x1
80003b0c:	fe0596e3          	bnez	a1,80003af8 <__mulsi3+0x8>
80003b10:	00008067          	ret

80003b14 <__divsi3>:
80003b14:	06054063          	bltz	a0,80003b74 <__umodsi3+0x10>
80003b18:	0605c663          	bltz	a1,80003b84 <__umodsi3+0x20>

80003b1c <__hidden___udivsi3>:
80003b1c:	00058613          	mv	a2,a1
80003b20:	00050593          	mv	a1,a0
80003b24:	fff00513          	li	a0,-1
80003b28:	02060c63          	beqz	a2,80003b60 <__hidden___udivsi3+0x44>
80003b2c:	00100693          	li	a3,1
80003b30:	00b67a63          	bgeu	a2,a1,80003b44 <__hidden___udivsi3+0x28>
80003b34:	00c05863          	blez	a2,80003b44 <__hidden___udivsi3+0x28>
80003b38:	00161613          	sll	a2,a2,0x1
80003b3c:	00169693          	sll	a3,a3,0x1
80003b40:	feb66ae3          	bltu	a2,a1,80003b34 <__hidden___udivsi3+0x18>
80003b44:	00000513          	li	a0,0
80003b48:	00c5e663          	bltu	a1,a2,80003b54 <__hidden___udivsi3+0x38>
80003b4c:	40c585b3          	sub	a1,a1,a2
80003b50:	00d56533          	or	a0,a0,a3
80003b54:	0016d693          	srl	a3,a3,0x1
80003b58:	00165613          	srl	a2,a2,0x1
80003b5c:	fe0696e3          	bnez	a3,80003b48 <__hidden___udivsi3+0x2c>
80003b60:	00008067          	ret

80003b64 <__umodsi3>:
80003b64:	00008293          	mv	t0,ra
80003b68:	fb5ff0ef          	jal	80003b1c <__hidden___udivsi3>
80003b6c:	00058513          	mv	a0,a1
80003b70:	00028067          	jr	t0
80003b74:	40a00533          	neg	a0,a0
80003b78:	00b04863          	bgtz	a1,80003b88 <__umodsi3+0x24>
80003b7c:	40b005b3          	neg	a1,a1
80003b80:	f9dff06f          	j	80003b1c <__hidden___udivsi3>
80003b84:	40b005b3          	neg	a1,a1
80003b88:	00008293          	mv	t0,ra
80003b8c:	f91ff0ef          	jal	80003b1c <__hidden___udivsi3>
80003b90:	40a00533          	neg	a0,a0
80003b94:	00028067          	jr	t0

80003b98 <__modsi3>:
80003b98:	00008293          	mv	t0,ra
80003b9c:	0005ca63          	bltz	a1,80003bb0 <__modsi3+0x18>
80003ba0:	00054c63          	bltz	a0,80003bb8 <__modsi3+0x20>
80003ba4:	f79ff0ef          	jal	80003b1c <__hidden___udivsi3>
80003ba8:	00058513          	mv	a0,a1
80003bac:	00028067          	jr	t0
80003bb0:	40b005b3          	neg	a1,a1
80003bb4:	fe0558e3          	bgez	a0,80003ba4 <__modsi3+0xc>
80003bb8:	40a00533          	neg	a0,a0
80003bbc:	f61ff0ef          	jal	80003b1c <__hidden___udivsi3>
80003bc0:	40b00533          	neg	a0,a1
80003bc4:	00028067          	jr	t0

Disassembly of section .text.startup:

80003bc8 <main>:
80003bc8:	e5010113          	add	sp,sp,-432
80003bcc:	1a912223          	sw	s1,420(sp)
80003bd0:	19412c23          	sw	s4,408(sp)
80003bd4:	00100513          	li	a0,1
80003bd8:	00000497          	auipc	s1,0x0
80003bdc:	61048493          	add	s1,s1,1552 # 800041e8 <input_data2>
80003be0:	00010a13          	mv	s4,sp
80003be4:	1a812423          	sw	s0,424(sp)
80003be8:	1b212023          	sw	s2,416(sp)
80003bec:	19312e23          	sw	s3,412(sp)
80003bf0:	1a112623          	sw	ra,428(sp)
80003bf4:	00000417          	auipc	s0,0x0
80003bf8:	46440413          	add	s0,s0,1124 # 80004058 <input_data1>
80003bfc:	99dfe0ef          	jal	80002598 <setStats>
80003c00:	00048993          	mv	s3,s1
80003c04:	000a0913          	mv	s2,s4
80003c08:	0004a583          	lw	a1,0(s1)
80003c0c:	00042503          	lw	a0,0(s0)
80003c10:	00440413          	add	s0,s0,4
80003c14:	00448493          	add	s1,s1,4
80003c18:	be8fe0ef          	jal	80002000 <multiply>
80003c1c:	00a92023          	sw	a0,0(s2)
80003c20:	00490913          	add	s2,s2,4
80003c24:	ff3412e3          	bne	s0,s3,80003c08 <main+0x40>
80003c28:	00000513          	li	a0,0
80003c2c:	96dfe0ef          	jal	80002598 <setStats>
80003c30:	00000797          	auipc	a5,0x0
80003c34:	74878793          	add	a5,a5,1864 # 80004378 <verify_data>
80003c38:	00000513          	li	a0,0
80003c3c:	06400813          	li	a6,100
80003c40:	0180006f          	j	80003c58 <main+0x90>
80003c44:	00250513          	add	a0,a0,2
80003c48:	02c59463          	bne	a1,a2,80003c70 <main+0xa8>
80003c4c:	008a0a13          	add	s4,s4,8
80003c50:	00878793          	add	a5,a5,8
80003c54:	03050e63          	beq	a0,a6,80003c90 <main+0xc8>
80003c58:	000a2683          	lw	a3,0(s4)
80003c5c:	0007a703          	lw	a4,0(a5)
80003c60:	004a2583          	lw	a1,4(s4)
80003c64:	0047a603          	lw	a2,4(a5)
80003c68:	fce68ee3          	beq	a3,a4,80003c44 <main+0x7c>
80003c6c:	00150513          	add	a0,a0,1
80003c70:	1ac12083          	lw	ra,428(sp)
80003c74:	1a812403          	lw	s0,424(sp)
80003c78:	1a412483          	lw	s1,420(sp)
80003c7c:	1a012903          	lw	s2,416(sp)
80003c80:	19c12983          	lw	s3,412(sp)
80003c84:	19812a03          	lw	s4,408(sp)
80003c88:	1b010113          	add	sp,sp,432
80003c8c:	00008067          	ret
80003c90:	00000513          	li	a0,0
80003c94:	fddff06f          	j	80003c70 <main+0xa8>
80003c98:	ff010113          	add	sp,sp,-16
80003c9c:	00000517          	auipc	a0,0x0
80003ca0:	03c50513          	add	a0,a0,60 # 80003cd8 <main+0x110>
80003ca4:	00112623          	sw	ra,12(sp)
80003ca8:	989fe0ef          	jal	80002630 <printstr>
80003cac:	00c12083          	lw	ra,12(sp)
80003cb0:	fff00513          	li	a0,-1
80003cb4:	01010113          	add	sp,sp,16
80003cb8:	00008067          	ret

Disassembly of section .data:

80004058 <input_data1>:
80004058:	0029                	.2byte	0x29
8000405a:	0000                	.2byte	0x0
8000405c:	01c6                	.2byte	0x1c6
8000405e:	0000                	.2byte	0x0
80004060:	0341                	.2byte	0x341
80004062:	0000                	.2byte	0x0
80004064:	0000014f          	fnmadd.s	ft2,ft0,ft0,ft0,rne
80004068:	0234                	.2byte	0x234
8000406a:	0000                	.2byte	0x0
8000406c:	0001                	.2byte	0x1
8000406e:	0000                	.2byte	0x0
80004070:	000000bb          	.4byte	0xbb
80004074:	03dd                	.2byte	0x3dd
80004076:	0000                	.2byte	0x0
80004078:	02ed                	.2byte	0x2ed
8000407a:	0000                	.2byte	0x0
8000407c:	016d                	.2byte	0x16d
8000407e:	0000                	.2byte	0x0
80004080:	015e                	.2byte	0x15e
80004082:	0000                	.2byte	0x0
80004084:	023c                	.2byte	0x23c
80004086:	0000                	.2byte	0x0
80004088:	0084                	.2byte	0x84
8000408a:	0000                	.2byte	0x0
8000408c:	0040                	.2byte	0x40
8000408e:	0000                	.2byte	0x0
80004090:	03b5                	.2byte	0x3b5
80004092:	0000                	.2byte	0x0
80004094:	0099                	.2byte	0x99
80004096:	0000                	.2byte	0x0
80004098:	0248                	.2byte	0x248
8000409a:	0000                	.2byte	0x0
8000409c:	00d8                	.2byte	0xd8
8000409e:	0000                	.2byte	0x0
800040a0:	0325                	.2byte	0x325
800040a2:	0000                	.2byte	0x0
800040a4:	008c                	.2byte	0x8c
800040a6:	0000                	.2byte	0x0
800040a8:	026d                	.2byte	0x26d
800040aa:	0000                	.2byte	0x0
800040ac:	00d2                	.2byte	0xd2
800040ae:	0000                	.2byte	0x0
800040b0:	0006                	.2byte	0x6
800040b2:	0000                	.2byte	0x0
800040b4:	023c                	.2byte	0x23c
800040b6:	0000                	.2byte	0x0
800040b8:	000003a3          	sb	zero,7(zero) # 7 <buf.2+0x7>
800040bc:	00000153          	fadd.s	ft2,ft0,ft0,rne
800040c0:	037a                	.2byte	0x37a
800040c2:	0000                	.2byte	0x0
800040c4:	0251                	.2byte	0x251
800040c6:	0000                	.2byte	0x0
800040c8:	0188                	.2byte	0x188
800040ca:	0000                	.2byte	0x0
800040cc:	0382                	.2byte	0x382
800040ce:	0000                	.2byte	0x0
800040d0:	02b6                	.2byte	0x2b6
800040d2:	0000                	.2byte	0x0
800040d4:	00e4                	.2byte	0xe4
800040d6:	0000                	.2byte	0x0
800040d8:	03c1                	.2byte	0x3c1
800040da:	0000                	.2byte	0x0
800040dc:	000c                	.2byte	0xc
800040de:	0000                	.2byte	0x0
800040e0:	006e                	.2byte	0x6e
800040e2:	0000                	.2byte	0x0
800040e4:	00000373          	.4byte	0x373
800040e8:	0074                	.2byte	0x74
800040ea:	0000                	.2byte	0x0
800040ec:	02ee                	.2byte	0x2ee
800040ee:	0000                	.2byte	0x0
800040f0:	0128                	.2byte	0x128
800040f2:	0000                	.2byte	0x0
800040f4:	0286                	.2byte	0x286
800040f6:	0000                	.2byte	0x0
800040f8:	01aa                	.2byte	0x1aa
800040fa:	0000                	.2byte	0x0
800040fc:	01f4                	.2byte	0x1f4
800040fe:	0000                	.2byte	0x0
80004100:	013a                	.2byte	0x13a
80004102:	0000                	.2byte	0x0
80004104:	01b4                	.2byte	0x1b4
80004106:	0000                	.2byte	0x0
80004108:	00000293          	li	t0,0
8000410c:	02bd                	.2byte	0x2bd
8000410e:	0000                	.2byte	0x0
80004110:	0306                	.2byte	0x306
80004112:	0000                	.2byte	0x0
80004114:	032c                	.2byte	0x32c
80004116:	0000                	.2byte	0x0
80004118:	0000013f 000003d5 	.8byte	0x3d50000013f
80004120:	02a6                	.2byte	0x2a6
80004122:	0000                	.2byte	0x0
80004124:	0096                	.2byte	0x96
80004126:	0000                	.2byte	0x0
80004128:	0000036b          	.4byte	0x36b
8000412c:	02b8                	.2byte	0x2b8
8000412e:	0000                	.2byte	0x0
80004130:	0178                	.2byte	0x178
80004132:	0000                	.2byte	0x0
80004134:	0234                	.2byte	0x234
80004136:	0000                	.2byte	0x0
80004138:	01da                	.2byte	0x1da
8000413a:	0000                	.2byte	0x0
8000413c:	0110                	.2byte	0x110
8000413e:	0000                	.2byte	0x0
80004140:	03aa                	.2byte	0x3aa
80004142:	0000                	.2byte	0x0
80004144:	0102                	.2byte	0x102
80004146:	0000                	.2byte	0x0
80004148:	0000021b          	.4byte	0x21b
8000414c:	00000287          	.4byte	0x287
80004150:	0239                	.2byte	0x239
80004152:	0000                	.2byte	0x0
80004154:	01fd                	.2byte	0x1fd
80004156:	0000                	.2byte	0x0
80004158:	000000cb          	fnmsub.s	ft1,ft0,ft0,ft0,rne
8000415c:	0058                	.2byte	0x58
8000415e:	0000                	.2byte	0x0
80004160:	0118                	.2byte	0x118
80004162:	0000                	.2byte	0x0
80004164:	000002bf 000002f7 	.8byte	0x2f7000002bf
8000416c:	029d                	.2byte	0x29d
8000416e:	0000                	.2byte	0x0
80004170:	025e                	.2byte	0x25e
80004172:	0000                	.2byte	0x0
80004174:	00000177          	.4byte	0x177
80004178:	01ff 0000 0227 0000 	.byte	0xff, 0x01, 0x00, 0x00, 0x27, 0x02, 0x00, 0x00, 0x91, 0x02
80004180:	0291 
80004182:	0000                	.2byte	0x0
80004184:	03a8                	.2byte	0x3a8
80004186:	0000                	.2byte	0x0
80004188:	000000c3          	fmadd.s	ft1,ft0,ft0,ft0,rne
8000418c:	0250                	.2byte	0x250
8000418e:	0000                	.2byte	0x0
80004190:	0051                	.2byte	0x51
80004192:	0000                	.2byte	0x0
80004194:	0239                	.2byte	0x239
80004196:	0000                	.2byte	0x0
80004198:	0000010b          	.4byte	0x10b
8000419c:	03b8                	.2byte	0x3b8
8000419e:	0000                	.2byte	0x0
800041a0:	00e5                	.2byte	0xe5
800041a2:	0000                	.2byte	0x0
800041a4:	0320                	.2byte	0x320
800041a6:	0000                	.2byte	0x0
800041a8:	0151                	.2byte	0x151
800041aa:	0000                	.2byte	0x0
800041ac:	0248                	.2byte	0x248
800041ae:	0000                	.2byte	0x0
800041b0:	03b0                	.2byte	0x3b0
800041b2:	0000                	.2byte	0x0
800041b4:	00000283          	lb	t0,0(zero) # 0 <buf.2>
800041b8:	0386                	.2byte	0x386
800041ba:	0000                	.2byte	0x0
800041bc:	0170                	.2byte	0x170
800041be:	0000                	.2byte	0x0
800041c0:	00f1                	.2byte	0xf1
800041c2:	0000                	.2byte	0x0
800041c4:	01e9                	.2byte	0x1e9
800041c6:	0000                	.2byte	0x0
800041c8:	0391                	.2byte	0x391
800041ca:	0000                	.2byte	0x0
800041cc:	0148                	.2byte	0x148
800041ce:	0000                	.2byte	0x0
800041d0:	033a                	.2byte	0x33a
800041d2:	0000                	.2byte	0x0
800041d4:	0139                	.2byte	0x139
800041d6:	0000                	.2byte	0x0
800041d8:	03a5                	.2byte	0x3a5
800041da:	0000                	.2byte	0x0
800041dc:	0250                	.2byte	0x250
800041de:	0000                	.2byte	0x0
800041e0:	03d9                	.2byte	0x3d9
800041e2:	0000                	.2byte	0x0
800041e4:	0184                	.2byte	0x184
800041e6:	0000                	.2byte	0x0

800041e8 <input_data2>:
800041e8:	000000c3          	fmadd.s	ft1,ft0,ft0,ft0,rne
800041ec:	021f 0000 03c0      	.byte	0x1f, 0x02, 0x00, 0x00, 0xc0, 0x03
800041f2:	0000                	.2byte	0x0
800041f4:	0289                	.2byte	0x289
800041f6:	0000                	.2byte	0x0
800041f8:	0236                	.2byte	0x236
800041fa:	0000                	.2byte	0x0
800041fc:	000003d3          	fadd.s	ft7,ft0,ft0,rne
80004200:	015e                	.2byte	0x15e
80004202:	0000                	.2byte	0x0
80004204:	03e5                	.2byte	0x3e5
80004206:	0000                	.2byte	0x0
80004208:	0289                	.2byte	0x289
8000420a:	0000                	.2byte	0x0
8000420c:	032e                	.2byte	0x32e
8000420e:	0000                	.2byte	0x0
80004210:	0291                	.2byte	0x291
80004212:	0000                	.2byte	0x0
80004214:	0000004f          	fnmadd.s	ft0,ft0,ft0,ft0,rne
80004218:	00b5                	.2byte	0xb5
8000421a:	0000                	.2byte	0x0
8000421c:	00d0                	.2byte	0xd0
8000421e:	0000                	.2byte	0x0
80004220:	0000006f          	j	80004220 <input_data2+0x38>
80004224:	03e6                	.2byte	0x3e6
80004226:	0000                	.2byte	0x0
80004228:	0000035b          	.4byte	0x35b
8000422c:	0275                	.2byte	0x275
8000422e:	0000                	.2byte	0x0
80004230:	0041                	.2byte	0x41
80004232:	0000                	.2byte	0x0
80004234:	0000034f          	fnmadd.s	ft6,ft0,ft0,ft0,rne
80004238:	0120                	.2byte	0x120
8000423a:	0000                	.2byte	0x0
8000423c:	02c0                	.2byte	0x2c0
8000423e:	0000                	.2byte	0x0
80004240:	015d                	.2byte	0x15d
80004242:	0000                	.2byte	0x0
80004244:	03e5                	.2byte	0x3e5
80004246:	0000                	.2byte	0x0
80004248:	008d                	.2byte	0x8d
8000424a:	0000                	.2byte	0x0
8000424c:	00fd                	.2byte	0xfd
8000424e:	0000                	.2byte	0x0
80004250:	0389                	.2byte	0x389
80004252:	0000                	.2byte	0x0
80004254:	000002cb          	fnmsub.s	ft5,ft0,ft0,ft0,rne
80004258:	0376                	.2byte	0x376
8000425a:	0000                	.2byte	0x0
8000425c:	01ae                	.2byte	0x1ae
8000425e:	0000                	.2byte	0x0
80004260:	0108                	.2byte	0x108
80004262:	0000                	.2byte	0x0
80004264:	019f 0000 0240      	.byte	0x9f, 0x01, 0x00, 0x00, 0x40, 0x02
8000426a:	0000                	.2byte	0x0
8000426c:	021a                	.2byte	0x21a
8000426e:	0000                	.2byte	0x0
80004270:	000003d3          	fadd.s	ft7,ft0,ft0,rne
80004274:	02bc                	.2byte	0x2bc
80004276:	0000                	.2byte	0x0
80004278:	02f9                	.2byte	0x2f9
8000427a:	0000                	.2byte	0x0
8000427c:	0004                	.2byte	0x4
8000427e:	0000                	.2byte	0x0
80004280:	00f1                	.2byte	0xf1
80004282:	0000                	.2byte	0x0
80004284:	01ee                	.2byte	0x1ee
80004286:	0000                	.2byte	0x0
80004288:	01de                	.2byte	0x1de
8000428a:	0000                	.2byte	0x0
8000428c:	0064                	.2byte	0x64
8000428e:	0000                	.2byte	0x0
80004290:	000001f3          	.4byte	0x1f3
80004294:	0360                	.2byte	0x360
80004296:	0000                	.2byte	0x0
80004298:	00000193          	li	gp,0
8000429c:	02b5                	.2byte	0x2b5
8000429e:	0000                	.2byte	0x0
800042a0:	00de                	.2byte	0xde
800042a2:	0000                	.2byte	0x0
800042a4:	01a0                	.2byte	0x1a0
800042a6:	0000                	.2byte	0x0
800042a8:	01bc                	.2byte	0x1bc
800042aa:	0000                	.2byte	0x0
800042ac:	0128                	.2byte	0x128
800042ae:	0000                	.2byte	0x0
800042b0:	02d1                	.2byte	0x2d1
800042b2:	0000                	.2byte	0x0
800042b4:	011d                	.2byte	0x11d
800042b6:	0000                	.2byte	0x0
800042b8:	02a4                	.2byte	0x2a4
800042ba:	0000                	.2byte	0x0
800042bc:	026c                	.2byte	0x26c
800042be:	0000                	.2byte	0x0
800042c0:	013d                	.2byte	0x13d
800042c2:	0000                	.2byte	0x0
800042c4:	004e                	.2byte	0x4e
800042c6:	0000                	.2byte	0x0
800042c8:	00e0                	.2byte	0xe0
800042ca:	0000                	.2byte	0x0
800042cc:	015f 0000 03a9      	.byte	0x5f, 0x01, 0x00, 0x00, 0xa9, 0x03
800042d2:	0000                	.2byte	0x0
800042d4:	021c                	.2byte	0x21c
800042d6:	0000                	.2byte	0x0
800042d8:	0120                	.2byte	0x120
800042da:	0000                	.2byte	0x0
800042dc:	0286                	.2byte	0x286
800042de:	0000                	.2byte	0x0
800042e0:	00000077          	.4byte	0x77
800042e4:	00a9                	.2byte	0xa9
800042e6:	0000                	.2byte	0x0
800042e8:	00000267          	jalr	tp,zero # 0 <buf.2>
800042ec:	0000020f          	.4byte	0x20f
800042f0:	025e                	.2byte	0x25e
800042f2:	0000                	.2byte	0x0
800042f4:	0121                	.2byte	0x121
800042f6:	0000                	.2byte	0x0
800042f8:	0185                	.2byte	0x185
800042fa:	0000                	.2byte	0x0
800042fc:	031c                	.2byte	0x31c
800042fe:	0000                	.2byte	0x0
80004300:	015f 0000 0321      	.byte	0x5f, 0x01, 0x00, 0x00, 0x21, 0x03
80004306:	0000                	.2byte	0x0
80004308:	000001c7          	fmsub.s	ft3,ft0,ft0,ft0,rne
8000430c:	02d0                	.2byte	0x2d0
8000430e:	0000                	.2byte	0x0
80004310:	0116                	.2byte	0x116
80004312:	0000                	.2byte	0x0
80004314:	02f6                	.2byte	0x2f6
80004316:	0000                	.2byte	0x0
80004318:	0000016f          	jal	sp,80004318 <input_data2+0x130>
8000431c:	02e9                	.2byte	0x2e9
8000431e:	0000                	.2byte	0x0
80004320:	0166                	.2byte	0x166
80004322:	0000                	.2byte	0x0
80004324:	005c                	.2byte	0x5c
80004326:	0000                	.2byte	0x0
80004328:	0248                	.2byte	0x248
8000432a:	0000                	.2byte	0x0
8000432c:	03dd                	.2byte	0x3dd
8000432e:	0000                	.2byte	0x0
80004330:	003e                	.2byte	0x3e
80004332:	0000                	.2byte	0x0
80004334:	0000010f          	.4byte	0x10f
80004338:	03d9                	.2byte	0x3d9
8000433a:	0000                	.2byte	0x0
8000433c:	0355                	.2byte	0x355
8000433e:	0000                	.2byte	0x0
80004340:	00000193          	li	gp,0
80004344:	0314                	.2byte	0x314
80004346:	0000                	.2byte	0x0
80004348:	015a                	.2byte	0x15a
8000434a:	0000                	.2byte	0x0
8000434c:	00000213          	li	tp,0
80004350:	0205                	.2byte	0x205
80004352:	0000                	.2byte	0x0
80004354:	00de                	.2byte	0xde
80004356:	0000                	.2byte	0x0
80004358:	0000022f          	.4byte	0x22f
8000435c:	01cd                	.2byte	0x1cd
8000435e:	0000                	.2byte	0x0
80004360:	038c                	.2byte	0x38c
80004362:	0000                	.2byte	0x0
80004364:	00f1                	.2byte	0xf1
80004366:	0000                	.2byte	0x0
80004368:	00000307          	.4byte	0x307
8000436c:	0166                	.2byte	0x166
8000436e:	0000                	.2byte	0x0
80004370:	00ff 0000 014c 0000 	.byte	0xff, 0x00, 0x00, 0x00, 0x4c, 0x01, 0x00, 0x00, 0x3b, 0x1f
80004378:	 

80004378 <verify_data>:
80004378:	00001f3b          	.4byte	0x1f3b
8000437c:	c2fa                	.2byte	0xc2fa
8000437e:	33c00003          	lb	zero,828(zero) # 33c <buflen.1+0x2fc>
80004382:	000c                	.2byte	0xc
80004384:	00035147          	fmsub.s	ft2,ft6,ft0,ft0,unknown
80004388:	def8                	.2byte	0xdef8
8000438a:	0004                	.2byte	0x4
8000438c:	000003d3          	fadd.s	ft7,ft0,ft0,rne
80004390:	ffaa                	.2byte	0xffaa
80004392:	0000                	.2byte	0x0
80004394:	0bb1                	.2byte	0xbb1
80004396:	6ad5000f          	.4byte	0x6ad5000f
8000439a:	88960007          	.4byte	0x88960007
8000439e:	0004                	.2byte	0x4
800043a0:	823e                	.2byte	0x823e
800043a2:	b0840003          	lb	zero,-1272(s0)
800043a6:	0000                	.2byte	0x0
800043a8:	5d54                	.2byte	0x5d54
800043aa:	0000                	.2byte	0x0
800043ac:	3400                	.2byte	0x3400
800043ae:	0000                	.2byte	0x0
800043b0:	00019b7b          	.4byte	0x19b7b
800043b4:	5476                	.2byte	0x5476
800043b6:	0002                	.2byte	0x2
800043b8:	a798                	.2byte	0xa798
800043ba:	12b80007          	.4byte	0x12b80007
800043be:	0002                	.2byte	0x2
800043c0:	cc65                	.2byte	0xcc65
800043c2:	0000                	.2byte	0x0
800043c4:	cf34                	.2byte	0xcf34
800043c6:	0001                	.2byte	0x1
800043c8:	baa0                	.2byte	0xbaa0
800043ca:	0002                	.2byte	0x2
800043cc:	4180                	.2byte	0x4180
800043ce:	0002                	.2byte	0x2
800043d0:	082e                	.2byte	0x82e
800043d2:	0000                	.2byte	0x0
800043d4:	b3ac                	.2byte	0xb3ac
800043d6:	0008                	.2byte	0x8
800043d8:	000200c7          	fmsub.s	ft1,ft4,ft0,ft0,rne
800043dc:	00014f07          	.4byte	0x14f07
800043e0:	4a4a                	.2byte	0x4a4a
800043e2:	000c                	.2byte	0xc
800043e4:	0006783b          	.4byte	0x6783b
800043e8:	4cb0                	.2byte	0x4cb0
800043ea:	0005                	.2byte	0x5
800043ec:	e45c                	.2byte	0xe45c
800043ee:	0005                	.2byte	0x5
800043f0:	cbb0                	.2byte	0xcbb0
800043f2:	0002                	.2byte	0x2
800043f4:	719c                	.2byte	0x719c
800043f6:	0001                	.2byte	0x1
800043f8:	7240                	.2byte	0x7240
800043fa:	0008                	.2byte	0x8
800043fc:	1938                	.2byte	0x1938
800043fe:	0000                	.2byte	0x0
80004400:	a4aa                	.2byte	0xa4aa
80004402:	0001                	.2byte	0x1
80004404:	6e74                	.2byte	0x6e74
80004406:	0009                	.2byte	0x9
80004408:	58d4                	.2byte	0x58d4
8000440a:	0001                	.2byte	0x1
8000440c:	0bb8                	.2byte	0xbb8
8000440e:	0000                	.2byte	0x0
80004410:	16a8                	.2byte	0x16a8
80004412:	0001                	.2byte	0x1
80004414:	de94                	.2byte	0xde94
80004416:	0004                	.2byte	0x4
80004418:	1b6c                	.2byte	0x1b6c
8000441a:	c3500003          	lb	zero,-971(zero) # fffffc35 <__global_pointer$+0x7fffaf2d>
8000441e:	0000                	.2byte	0x0
80004420:	640e                	.2byte	0x640e
80004422:	0002                	.2byte	0x2
80004424:	bf80                	.2byte	0xbf80
80004426:	0005                	.2byte	0x5
80004428:	0d69                	.2byte	0xd69
8000442a:	0004                	.2byte	0x4
8000442c:	69a1                	.2byte	0x69a1
8000442e:	9f340007          	.4byte	0x9f340007
80004432:	0002                	.2byte	0x2
80004434:	2780                	.2byte	0x2780
80004436:	0005                	.2byte	0x5
80004438:	2944                	.2byte	0x2944
8000443a:	0002                	.2byte	0x2
8000443c:	6e48                	.2byte	0x6e48
8000443e:	0004                	.2byte	0x4
80004440:	7586                	.2byte	0x7586
80004442:	a6fe0007          	.4byte	0xa6fe0007
80004446:	0000                	.2byte	0x0
80004448:	068c                	.2byte	0x68c
8000444a:	0009                	.2byte	0x9
8000444c:	95a0                	.2byte	0x95a0
8000444e:	0006                	.2byte	0x6
80004450:	d198                	.2byte	0xd198
80004452:	0001                	.2byte	0x1
80004454:	abd8                	.2byte	0xabd8
80004456:	0000                	.2byte	0x0
80004458:	9ec0                	.2byte	0x9ec0
8000445a:	0001                	.2byte	0x1
8000445c:	74f0                	.2byte	0x74f0
8000445e:	0001                	.2byte	0x1
80004460:	693a                	.2byte	0x693a
80004462:	000d                	.2byte	0xd
80004464:	2038                	.2byte	0x2038
80004466:	0002                	.2byte	0x2
80004468:	5e60                	.2byte	0x5e60
8000446a:	0002                	.2byte	0x2
8000446c:	60aa                	.2byte	0x60aa
8000446e:	0006                	.2byte	0x6
80004470:	087f 0001 5005 0001 	.byte	0x7f, 0x08, 0x01, 0x00, 0x05, 0x50, 0x01, 0x00, 0xad, 0xe7
80004478:	e7ad 
8000447a:	0001                	.2byte	0x1
8000447c:	b528                	.2byte	0xb528
8000447e:	0000                	.2byte	0x0
80004480:	96d0                	.2byte	0x96d0
80004482:	0002                	.2byte	0x2
80004484:	199f 0003 8153      	.byte	0x9f, 0x19, 0x03, 0x00, 0x53, 0x81
8000448a:	0004                	.2byte	0x4
8000448c:	202c                	.2byte	0x202c
8000448e:	0008                	.2byte	0x8
80004490:	3ee2                	.2byte	0x3ee2
80004492:	95570003          	lb	zero,-1707(a4) # fff955 <buflen.1+0xfff915>
80004496:	0004                	.2byte	0x4
80004498:	8c39                	.2byte	0x8c39
8000449a:	0db00003          	lb	zero,219(zero) # db <buflen.1+0x9b>
8000449e:	0006                	.2byte	0x6
800044a0:	c976                	.2byte	0xc976
800044a2:	0002                	.2byte	0x2
800044a4:	d370                	.2byte	0xd370
800044a6:	000a                	.2byte	0xa
800044a8:	178d                	.2byte	0x178d
800044aa:	0001                	.2byte	0x1
800044ac:	bad0                	.2byte	0xbad0
800044ae:	0006                	.2byte	0x6
800044b0:	7146                	.2byte	0x7146
800044b2:	0000                	.2byte	0x0
800044b4:	cc7c                	.2byte	0xcc7c
800044b6:	0000                	.2byte	0x0
800044b8:	6118                	.2byte	0x6118
800044ba:	0002                	.2byte	0x2
800044bc:	5dd8                	.2byte	0x5dd8
800044be:	000e                	.2byte	0xe
800044c0:	3776                	.2byte	0x3776
800044c2:	0000                	.2byte	0x0
800044c4:	4ee0                	.2byte	0x4ee0
800044c6:	10a90003          	lb	zero,266(s2)
800044ca:	0005                	.2byte	0x5
800044cc:	99e8                	.2byte	0x99e8
800044ce:	ce100007          	.4byte	0xce100007
800044d2:	0005                	.2byte	0x5
800044d4:	bb3c                	.2byte	0xbb3c
800044d6:	c31c0007          	.4byte	0xc31c0007
800044da:	0004                	.2byte	0x4
800044dc:	fb50                	.2byte	0xfb50
800044de:	0002                	.2byte	0x2
800044e0:	e6b5                	.2byte	0xe6b5
800044e2:	0001                	.2byte	0x1
800044e4:	a80e                	.2byte	0xa80e
800044e6:	0001                	.2byte	0x1
800044e8:	c99f 0007 4ea8      	.byte	0x9f, 0xc9, 0x07, 0x00, 0xa8, 0x4e
800044ee:	0002                	.2byte	0x2
800044f0:	71b8                	.2byte	0x71b8
800044f2:	26a9000b          	.4byte	0x26a9000b
800044f6:	0001                	.2byte	0x1
800044f8:	000b0883          	lb	a7,0(s6)
800044fc:	3be0                	.2byte	0x3be0
800044fe:	d5270003          	lb	zero,-686(a4)
80004502:	f7300003          	lb	zero,-141(zero) # ffffff73 <__global_pointer$+0x7fffb26b>
80004506:	0001                	.2byte	0x1
