
vvadd.bin:     file format elf32-littleriscv


Disassembly of section .text.init:

80000000 <_start>:
80000000:	00000093          	li	ra,0
80000004:	00000113          	li	sp,0
80000008:	00000193          	li	gp,0
8000000c:	00000213          	li	tp,0
80000010:	00000293          	li	t0,0
80000014:	00000313          	li	t1,0
80000018:	00000393          	li	t2,0
8000001c:	00000413          	li	s0,0
80000020:	00000493          	li	s1,0
80000024:	00000513          	li	a0,0
80000028:	00000593          	li	a1,0
8000002c:	00000613          	li	a2,0
80000030:	00000693          	li	a3,0
80000034:	00000713          	li	a4,0
80000038:	00000793          	li	a5,0
8000003c:	00000813          	li	a6,0
80000040:	00000893          	li	a7,0
80000044:	00000913          	li	s2,0
80000048:	00000993          	li	s3,0
8000004c:	00000a13          	li	s4,0
80000050:	00000a93          	li	s5,0
80000054:	00000b13          	li	s6,0
80000058:	00000b93          	li	s7,0
8000005c:	00000c13          	li	s8,0
80000060:	00000c93          	li	s9,0
80000064:	00000d13          	li	s10,0
80000068:	00000d93          	li	s11,0
8000006c:	00000e13          	li	t3,0
80000070:	00000e93          	li	t4,0
80000074:	00000f13          	li	t5,0
80000078:	00000f93          	li	t6,0
8000007c:	0001e2b7          	lui	t0,0x1e
80000080:	60028293          	add	t0,t0,1536 # 1e600 <buflen.1+0x1e5c0>
80000084:	3002a073          	csrs	mstatus,t0
80000088:	00100293          	li	t0,1
8000008c:	01f29293          	sll	t0,t0,0x1f
80000090:	0002ca63          	bltz	t0,800000a4 <_start+0xa4>
80000094:	00100513          	li	a0,1
80000098:	00001297          	auipc	t0,0x1
8000009c:	f6a2a423          	sw	a0,-152(t0) # 80001000 <tohost>
800000a0:	ff5ff06f          	j	80000094 <_start+0x94>
800000a4:	00000297          	auipc	t0,0x0
800000a8:	09028293          	add	t0,t0,144 # 80000134 <_start+0x134>
800000ac:	30529073          	csrw	mtvec,t0
800000b0:	00301073          	fscsr	zero
800000b4:	f0000053          	fmv.w.x	ft0,zero
800000b8:	f00000d3          	fmv.w.x	ft1,zero
800000bc:	f0000153          	fmv.w.x	ft2,zero
800000c0:	f00001d3          	fmv.w.x	ft3,zero
800000c4:	f0000253          	fmv.w.x	ft4,zero
800000c8:	f00002d3          	fmv.w.x	ft5,zero
800000cc:	f0000353          	fmv.w.x	ft6,zero
800000d0:	f00003d3          	fmv.w.x	ft7,zero
800000d4:	f0000453          	fmv.w.x	fs0,zero
800000d8:	f00004d3          	fmv.w.x	fs1,zero
800000dc:	f0000553          	fmv.w.x	fa0,zero
800000e0:	f00005d3          	fmv.w.x	fa1,zero
800000e4:	f0000653          	fmv.w.x	fa2,zero
800000e8:	f00006d3          	fmv.w.x	fa3,zero
800000ec:	f0000753          	fmv.w.x	fa4,zero
800000f0:	f00007d3          	fmv.w.x	fa5,zero
800000f4:	f0000853          	fmv.w.x	fa6,zero
800000f8:	f00008d3          	fmv.w.x	fa7,zero
800000fc:	f0000953          	fmv.w.x	fs2,zero
80000100:	f00009d3          	fmv.w.x	fs3,zero
80000104:	f0000a53          	fmv.w.x	fs4,zero
80000108:	f0000ad3          	fmv.w.x	fs5,zero
8000010c:	f0000b53          	fmv.w.x	fs6,zero
80000110:	f0000bd3          	fmv.w.x	fs7,zero
80000114:	f0000c53          	fmv.w.x	fs8,zero
80000118:	f0000cd3          	fmv.w.x	fs9,zero
8000011c:	f0000d53          	fmv.w.x	fs10,zero
80000120:	f0000dd3          	fmv.w.x	fs11,zero
80000124:	f0000e53          	fmv.w.x	ft8,zero
80000128:	f0000ed3          	fmv.w.x	ft9,zero
8000012c:	f0000f53          	fmv.w.x	ft10,zero
80000130:	f0000fd3          	fmv.w.x	ft11,zero
80000134:	00000297          	auipc	t0,0x0
80000138:	04028293          	add	t0,t0,64 # 80000174 <trap_entry>
8000013c:	30529073          	csrw	mtvec,t0
80000140:	00005197          	auipc	gp,0x5
80000144:	10418193          	add	gp,gp,260 # 80005244 <__global_pointer$>
80000148:	87b18213          	add	tp,gp,-1925 # 80004abf <_end+0x3f>
8000014c:	fc027213          	and	tp,tp,-64
80000150:	f1402573          	csrr	a0,mhartid
80000154:	00100593          	li	a1,1
80000158:	00b57063          	bgeu	a0,a1,80000158 <_start+0x158>
8000015c:	00150113          	add	sp,a0,1
80000160:	01111113          	sll	sp,sp,0x11
80000164:	00410133          	add	sp,sp,tp
80000168:	01151613          	sll	a2,a0,0x11
8000016c:	00c20233          	add	tp,tp,a2
80000170:	0610206f          	j	800029d0 <_init>

80000174 <trap_entry>:
80000174:	ef010113          	add	sp,sp,-272
80000178:	00112223          	sw	ra,4(sp)
8000017c:	00212423          	sw	sp,8(sp)
80000180:	00312623          	sw	gp,12(sp)
80000184:	00412823          	sw	tp,16(sp)
80000188:	00512a23          	sw	t0,20(sp)
8000018c:	00612c23          	sw	t1,24(sp)
80000190:	00712e23          	sw	t2,28(sp)
80000194:	02812023          	sw	s0,32(sp)
80000198:	02912223          	sw	s1,36(sp)
8000019c:	02a12423          	sw	a0,40(sp)
800001a0:	02b12623          	sw	a1,44(sp)
800001a4:	02c12823          	sw	a2,48(sp)
800001a8:	02d12a23          	sw	a3,52(sp)
800001ac:	02e12c23          	sw	a4,56(sp)
800001b0:	02f12e23          	sw	a5,60(sp)
800001b4:	05012023          	sw	a6,64(sp)
800001b8:	05112223          	sw	a7,68(sp)
800001bc:	05212423          	sw	s2,72(sp)
800001c0:	05312623          	sw	s3,76(sp)
800001c4:	05412823          	sw	s4,80(sp)
800001c8:	05512a23          	sw	s5,84(sp)
800001cc:	05612c23          	sw	s6,88(sp)
800001d0:	05712e23          	sw	s7,92(sp)
800001d4:	07812023          	sw	s8,96(sp)
800001d8:	07912223          	sw	s9,100(sp)
800001dc:	07a12423          	sw	s10,104(sp)
800001e0:	07b12623          	sw	s11,108(sp)
800001e4:	07c12823          	sw	t3,112(sp)
800001e8:	07d12a23          	sw	t4,116(sp)
800001ec:	07e12c23          	sw	t5,120(sp)
800001f0:	07f12e23          	sw	t6,124(sp)
800001f4:	34202573          	csrr	a0,mcause
800001f8:	341025f3          	csrr	a1,mepc
800001fc:	00010613          	mv	a2,sp
80000200:	45c020ef          	jal	8000265c <handle_trap>
80000204:	34151073          	csrw	mepc,a0
80000208:	000022b7          	lui	t0,0x2
8000020c:	80028293          	add	t0,t0,-2048 # 1800 <buflen.1+0x17c0>
80000210:	3002a073          	csrs	mstatus,t0
80000214:	00412083          	lw	ra,4(sp)
80000218:	00812103          	lw	sp,8(sp)
8000021c:	00c12183          	lw	gp,12(sp)
80000220:	01012203          	lw	tp,16(sp)
80000224:	01412283          	lw	t0,20(sp)
80000228:	01812303          	lw	t1,24(sp)
8000022c:	01c12383          	lw	t2,28(sp)
80000230:	02012403          	lw	s0,32(sp)
80000234:	02412483          	lw	s1,36(sp)
80000238:	02812503          	lw	a0,40(sp)
8000023c:	02c12583          	lw	a1,44(sp)
80000240:	03012603          	lw	a2,48(sp)
80000244:	03412683          	lw	a3,52(sp)
80000248:	03812703          	lw	a4,56(sp)
8000024c:	03c12783          	lw	a5,60(sp)
80000250:	04012803          	lw	a6,64(sp)
80000254:	04412883          	lw	a7,68(sp)
80000258:	04812903          	lw	s2,72(sp)
8000025c:	04c12983          	lw	s3,76(sp)
80000260:	05012a03          	lw	s4,80(sp)
80000264:	05412a83          	lw	s5,84(sp)
80000268:	05812b03          	lw	s6,88(sp)
8000026c:	05c12b83          	lw	s7,92(sp)
80000270:	06012c03          	lw	s8,96(sp)
80000274:	06412c83          	lw	s9,100(sp)
80000278:	06812d03          	lw	s10,104(sp)
8000027c:	06c12d83          	lw	s11,108(sp)
80000280:	07012e03          	lw	t3,112(sp)
80000284:	07412e83          	lw	t4,116(sp)
80000288:	07812f03          	lw	t5,120(sp)
8000028c:	07c12f83          	lw	t6,124(sp)
80000290:	11010113          	add	sp,sp,272
80000294:	30200073          	mret

Disassembly of section .text:

80002000 <vvadd>:
80002000:	02a05663          	blez	a0,8000202c <vvadd+0x2c>
80002004:	00251513          	sll	a0,a0,0x2
80002008:	00a58533          	add	a0,a1,a0
8000200c:	0005a783          	lw	a5,0(a1)
80002010:	00062703          	lw	a4,0(a2)
80002014:	00458593          	add	a1,a1,4
80002018:	00460613          	add	a2,a2,4
8000201c:	00e787b3          	add	a5,a5,a4
80002020:	00f6a023          	sw	a5,0(a3)
80002024:	00468693          	add	a3,a3,4
80002028:	fea592e3          	bne	a1,a0,8000200c <vvadd+0xc>
8000202c:	00008067          	ret

80002030 <vprintfmt>:
80002030:	eb010113          	add	sp,sp,-336
80002034:	14812423          	sw	s0,328(sp)
80002038:	15212023          	sw	s2,320(sp)
8000203c:	13312e23          	sw	s3,316(sp)
80002040:	13412c23          	sw	s4,312(sp)
80002044:	14112623          	sw	ra,332(sp)
80002048:	14912223          	sw	s1,324(sp)
8000204c:	13512a23          	sw	s5,308(sp)
80002050:	13612823          	sw	s6,304(sp)
80002054:	13712623          	sw	s7,300(sp)
80002058:	13812423          	sw	s8,296(sp)
8000205c:	13912223          	sw	s9,292(sp)
80002060:	13a12023          	sw	s10,288(sp)
80002064:	11b12e23          	sw	s11,284(sp)
80002068:	00050993          	mv	s3,a0
8000206c:	00058913          	mv	s2,a1
80002070:	00060413          	mv	s0,a2
80002074:	00d12623          	sw	a3,12(sp)
80002078:	02500a13          	li	s4,37
8000207c:	0140006f          	j	80002090 <vprintfmt+0x60>
80002080:	06050463          	beqz	a0,800020e8 <vprintfmt+0xb8>
80002084:	00090593          	mv	a1,s2
80002088:	00140413          	add	s0,s0,1
8000208c:	000980e7          	jalr	s3
80002090:	00044503          	lbu	a0,0(s0)
80002094:	ff4516e3          	bne	a0,s4,80002080 <vprintfmt+0x50>
80002098:	00144683          	lbu	a3,1(s0)
8000209c:	00140a93          	add	s5,s0,1
800020a0:	02000793          	li	a5,32
800020a4:	000a8713          	mv	a4,s5
800020a8:	00f12423          	sw	a5,8(sp)
800020ac:	fff00493          	li	s1,-1
800020b0:	fff00b13          	li	s6,-1
800020b4:	00000593          	li	a1,0
800020b8:	fdd68793          	add	a5,a3,-35
800020bc:	0ff7f793          	zext.b	a5,a5
800020c0:	05500613          	li	a2,85
800020c4:	00170413          	add	s0,a4,1
800020c8:	06f66e63          	bltu	a2,a5,80002144 <vprintfmt+0x114>
800020cc:	00002617          	auipc	a2,0x2
800020d0:	8c060613          	add	a2,a2,-1856 # 8000398c <main+0x114>
800020d4:	00279793          	sll	a5,a5,0x2
800020d8:	00c787b3          	add	a5,a5,a2
800020dc:	0007a783          	lw	a5,0(a5)
800020e0:	00c787b3          	add	a5,a5,a2
800020e4:	00078067          	jr	a5
800020e8:	14c12083          	lw	ra,332(sp)
800020ec:	14812403          	lw	s0,328(sp)
800020f0:	14412483          	lw	s1,324(sp)
800020f4:	14012903          	lw	s2,320(sp)
800020f8:	13c12983          	lw	s3,316(sp)
800020fc:	13812a03          	lw	s4,312(sp)
80002100:	13412a83          	lw	s5,308(sp)
80002104:	13012b03          	lw	s6,304(sp)
80002108:	12c12b83          	lw	s7,300(sp)
8000210c:	12812c03          	lw	s8,296(sp)
80002110:	12412c83          	lw	s9,292(sp)
80002114:	12012d03          	lw	s10,288(sp)
80002118:	11c12d83          	lw	s11,284(sp)
8000211c:	15010113          	add	sp,sp,336
80002120:	00008067          	ret
80002124:	00d12423          	sw	a3,8(sp)
80002128:	00174683          	lbu	a3,1(a4)
8000212c:	05500613          	li	a2,85
80002130:	00040713          	mv	a4,s0
80002134:	fdd68793          	add	a5,a3,-35
80002138:	0ff7f793          	zext.b	a5,a5
8000213c:	00170413          	add	s0,a4,1
80002140:	f8f676e3          	bgeu	a2,a5,800020cc <vprintfmt+0x9c>
80002144:	00090593          	mv	a1,s2
80002148:	02500513          	li	a0,37
8000214c:	000980e7          	jalr	s3
80002150:	000a8413          	mv	s0,s5
80002154:	f3dff06f          	j	80002090 <vprintfmt+0x60>
80002158:	00174603          	lbu	a2,1(a4)
8000215c:	00900793          	li	a5,9
80002160:	fd068493          	add	s1,a3,-48
80002164:	fd060713          	add	a4,a2,-48
80002168:	00060693          	mv	a3,a2
8000216c:	36e7ec63          	bltu	a5,a4,800024e4 <vprintfmt+0x4b4>
80002170:	00040713          	mv	a4,s0
80002174:	00900513          	li	a0,9
80002178:	00249793          	sll	a5,s1,0x2
8000217c:	009787b3          	add	a5,a5,s1
80002180:	00170713          	add	a4,a4,1
80002184:	00179793          	sll	a5,a5,0x1
80002188:	00c787b3          	add	a5,a5,a2
8000218c:	00074603          	lbu	a2,0(a4)
80002190:	fd078493          	add	s1,a5,-48
80002194:	fd060793          	add	a5,a2,-48
80002198:	00060693          	mv	a3,a2
8000219c:	fcf57ee3          	bgeu	a0,a5,80002178 <vprintfmt+0x148>
800021a0:	f00b5ce3          	bgez	s6,800020b8 <vprintfmt+0x88>
800021a4:	00048b13          	mv	s6,s1
800021a8:	fff00493          	li	s1,-1
800021ac:	f0dff06f          	j	800020b8 <vprintfmt+0x88>
800021b0:	00174683          	lbu	a3,1(a4)
800021b4:	00040713          	mv	a4,s0
800021b8:	f01ff06f          	j	800020b8 <vprintfmt+0x88>
800021bc:	00090593          	mv	a1,s2
800021c0:	02500513          	li	a0,37
800021c4:	000980e7          	jalr	s3
800021c8:	ec9ff06f          	j	80002090 <vprintfmt+0x60>
800021cc:	00c12783          	lw	a5,12(sp)
800021d0:	00174683          	lbu	a3,1(a4)
800021d4:	00040713          	mv	a4,s0
800021d8:	0007a483          	lw	s1,0(a5)
800021dc:	00478793          	add	a5,a5,4
800021e0:	00f12623          	sw	a5,12(sp)
800021e4:	fbdff06f          	j	800021a0 <vprintfmt+0x170>
800021e8:	03000513          	li	a0,48
800021ec:	00090593          	mv	a1,s2
800021f0:	000980e7          	jalr	s3
800021f4:	00090593          	mv	a1,s2
800021f8:	07800513          	li	a0,120
800021fc:	000980e7          	jalr	s3
80002200:	00c12783          	lw	a5,12(sp)
80002204:	01000a93          	li	s5,16
80002208:	00000d93          	li	s11,0
8000220c:	00478713          	add	a4,a5,4
80002210:	00c12783          	lw	a5,12(sp)
80002214:	00000c13          	li	s8,0
80002218:	0007a483          	lw	s1,0(a5)
8000221c:	00e12623          	sw	a4,12(sp)
80002220:	000a8613          	mv	a2,s5
80002224:	00000693          	li	a3,0
80002228:	00048513          	mv	a0,s1
8000222c:	000c0593          	mv	a1,s8
80002230:	264010ef          	jal	80003494 <__umoddi3>
80002234:	00a12823          	sw	a0,16(sp)
80002238:	278d8263          	beq	s11,s8,8000249c <vprintfmt+0x46c>
8000223c:	01410b93          	add	s7,sp,20
80002240:	00100c93          	li	s9,1
80002244:	000a8613          	mv	a2,s5
80002248:	00000693          	li	a3,0
8000224c:	00048513          	mv	a0,s1
80002250:	000c0593          	mv	a1,s8
80002254:	611000ef          	jal	80003064 <__udivdi3>
80002258:	000a8613          	mv	a2,s5
8000225c:	00000693          	li	a3,0
80002260:	00050493          	mv	s1,a0
80002264:	00058c13          	mv	s8,a1
80002268:	22c010ef          	jal	80003494 <__umoddi3>
8000226c:	00aba023          	sw	a0,0(s7)
80002270:	000c8d13          	mv	s10,s9
80002274:	004b8b93          	add	s7,s7,4
80002278:	001c8c93          	add	s9,s9,1
8000227c:	fd8d94e3          	bne	s11,s8,80002244 <vprintfmt+0x214>
80002280:	fd54f2e3          	bgeu	s1,s5,80002244 <vprintfmt+0x214>
80002284:	fffb0a93          	add	s5,s6,-1
80002288:	fffc8493          	add	s1,s9,-1
8000228c:	016cdc63          	bge	s9,s6,800022a4 <vprintfmt+0x274>
80002290:	00812503          	lw	a0,8(sp)
80002294:	fffa8a93          	add	s5,s5,-1
80002298:	00090593          	mv	a1,s2
8000229c:	000980e7          	jalr	s3
800022a0:	ff5498e3          	bne	s1,s5,80002290 <vprintfmt+0x260>
800022a4:	002d1793          	sll	a5,s10,0x2
800022a8:	01078793          	add	a5,a5,16
800022ac:	00278ab3          	add	s5,a5,sp
800022b0:	00900493          	li	s1,9
800022b4:	0080006f          	j	800022bc <vprintfmt+0x28c>
800022b8:	00078d13          	mv	s10,a5
800022bc:	000aa503          	lw	a0,0(s5)
800022c0:	00090593          	mv	a1,s2
800022c4:	ffca8a93          	add	s5,s5,-4
800022c8:	00a4b7b3          	sltu	a5,s1,a0
800022cc:	40f007b3          	neg	a5,a5
800022d0:	0277f793          	and	a5,a5,39
800022d4:	03078793          	add	a5,a5,48
800022d8:	00f50533          	add	a0,a0,a5
800022dc:	000980e7          	jalr	s3
800022e0:	fffd0793          	add	a5,s10,-1
800022e4:	fc0d1ae3          	bnez	s10,800022b8 <vprintfmt+0x288>
800022e8:	da9ff06f          	j	80002090 <vprintfmt+0x60>
800022ec:	00100793          	li	a5,1
800022f0:	1ab7ce63          	blt	a5,a1,800024ac <vprintfmt+0x47c>
800022f4:	00c12783          	lw	a5,12(sp)
800022f8:	0007a483          	lw	s1,0(a5)
800022fc:	00478793          	add	a5,a5,4
80002300:	00f12623          	sw	a5,12(sp)
80002304:	41f4dc13          	sra	s8,s1,0x1f
80002308:	020c5063          	bgez	s8,80002328 <vprintfmt+0x2f8>
8000230c:	00090593          	mv	a1,s2
80002310:	02d00513          	li	a0,45
80002314:	000980e7          	jalr	s3
80002318:	00903733          	snez	a4,s1
8000231c:	418007b3          	neg	a5,s8
80002320:	409004b3          	neg	s1,s1
80002324:	40e78c33          	sub	s8,a5,a4
80002328:	00a00a93          	li	s5,10
8000232c:	00000d93          	li	s11,0
80002330:	ef1ff06f          	j	80002220 <vprintfmt+0x1f0>
80002334:	00174683          	lbu	a3,1(a4)
80002338:	00158593          	add	a1,a1,1
8000233c:	00040713          	mv	a4,s0
80002340:	d79ff06f          	j	800020b8 <vprintfmt+0x88>
80002344:	01000a93          	li	s5,16
80002348:	00000d93          	li	s11,0
8000234c:	00100793          	li	a5,1
80002350:	12b7c663          	blt	a5,a1,8000247c <vprintfmt+0x44c>
80002354:	00c12783          	lw	a5,12(sp)
80002358:	00478713          	add	a4,a5,4
8000235c:	eb5ff06f          	j	80002210 <vprintfmt+0x1e0>
80002360:	00c12783          	lw	a5,12(sp)
80002364:	0007aa83          	lw	s5,0(a5)
80002368:	00478b93          	add	s7,a5,4
8000236c:	060a8263          	beqz	s5,800023d0 <vprintfmt+0x3a0>
80002370:	0d605463          	blez	s6,80002438 <vprintfmt+0x408>
80002374:	00812703          	lw	a4,8(sp)
80002378:	02d00793          	li	a5,45
8000237c:	06f71e63          	bne	a4,a5,800023f8 <vprintfmt+0x3c8>
80002380:	000ac503          	lbu	a0,0(s5)
80002384:	02050863          	beqz	a0,800023b4 <vprintfmt+0x384>
80002388:	fff00c13          	li	s8,-1
8000238c:	0004c663          	bltz	s1,80002398 <vprintfmt+0x368>
80002390:	fff48493          	add	s1,s1,-1
80002394:	01848e63          	beq	s1,s8,800023b0 <vprintfmt+0x380>
80002398:	00090593          	mv	a1,s2
8000239c:	001a8a93          	add	s5,s5,1
800023a0:	000980e7          	jalr	s3
800023a4:	000ac503          	lbu	a0,0(s5)
800023a8:	fffb0b13          	add	s6,s6,-1
800023ac:	fe0510e3          	bnez	a0,8000238c <vprintfmt+0x35c>
800023b0:	01605c63          	blez	s6,800023c8 <vprintfmt+0x398>
800023b4:	fffb0b13          	add	s6,s6,-1
800023b8:	00090593          	mv	a1,s2
800023bc:	02000513          	li	a0,32
800023c0:	000980e7          	jalr	s3
800023c4:	fe0b18e3          	bnez	s6,800023b4 <vprintfmt+0x384>
800023c8:	01712623          	sw	s7,12(sp)
800023cc:	cc5ff06f          	j	80002090 <vprintfmt+0x60>
800023d0:	00001a97          	auipc	s5,0x1
800023d4:	57ca8a93          	add	s5,s5,1404 # 8000394c <main+0xd4>
800023d8:	02800513          	li	a0,40
800023dc:	fb6056e3          	blez	s6,80002388 <vprintfmt+0x358>
800023e0:	00812703          	lw	a4,8(sp)
800023e4:	02d00793          	li	a5,45
800023e8:	00001a97          	auipc	s5,0x1
800023ec:	564a8a93          	add	s5,s5,1380 # 8000394c <main+0xd4>
800023f0:	02800513          	li	a0,40
800023f4:	f8f70ae3          	beq	a4,a5,80002388 <vprintfmt+0x358>
800023f8:	000a8793          	mv	a5,s5
800023fc:	009a86b3          	add	a3,s5,s1
80002400:	00049863          	bnez	s1,80002410 <vprintfmt+0x3e0>
80002404:	0200006f          	j	80002424 <vprintfmt+0x3f4>
80002408:	00178793          	add	a5,a5,1
8000240c:	00d78663          	beq	a5,a3,80002418 <vprintfmt+0x3e8>
80002410:	0007c703          	lbu	a4,0(a5)
80002414:	fe071ae3          	bnez	a4,80002408 <vprintfmt+0x3d8>
80002418:	415787b3          	sub	a5,a5,s5
8000241c:	40fb0b33          	sub	s6,s6,a5
80002420:	01605c63          	blez	s6,80002438 <vprintfmt+0x408>
80002424:	00812503          	lw	a0,8(sp)
80002428:	fffb0b13          	add	s6,s6,-1
8000242c:	00090593          	mv	a1,s2
80002430:	000980e7          	jalr	s3
80002434:	fe0b18e3          	bnez	s6,80002424 <vprintfmt+0x3f4>
80002438:	000ac503          	lbu	a0,0(s5)
8000243c:	f80506e3          	beqz	a0,800023c8 <vprintfmt+0x398>
80002440:	fff00c13          	li	s8,-1
80002444:	f49ff06f          	j	8000238c <vprintfmt+0x35c>
80002448:	fffb4793          	not	a5,s6
8000244c:	41f7d793          	sra	a5,a5,0x1f
80002450:	00174683          	lbu	a3,1(a4)
80002454:	00fb7b33          	and	s6,s6,a5
80002458:	00040713          	mv	a4,s0
8000245c:	c5dff06f          	j	800020b8 <vprintfmt+0x88>
80002460:	00c12783          	lw	a5,12(sp)
80002464:	00090593          	mv	a1,s2
80002468:	0007a503          	lw	a0,0(a5)
8000246c:	00478b93          	add	s7,a5,4
80002470:	000980e7          	jalr	s3
80002474:	01712623          	sw	s7,12(sp)
80002478:	c19ff06f          	j	80002090 <vprintfmt+0x60>
8000247c:	00c12783          	lw	a5,12(sp)
80002480:	00778b93          	add	s7,a5,7
80002484:	ff8bfb93          	and	s7,s7,-8
80002488:	008b8793          	add	a5,s7,8
8000248c:	000ba483          	lw	s1,0(s7)
80002490:	004bac03          	lw	s8,4(s7)
80002494:	00f12623          	sw	a5,12(sp)
80002498:	d89ff06f          	j	80002220 <vprintfmt+0x1f0>
8000249c:	db54f0e3          	bgeu	s1,s5,8000223c <vprintfmt+0x20c>
800024a0:	00000d13          	li	s10,0
800024a4:	00100c93          	li	s9,1
800024a8:	dddff06f          	j	80002284 <vprintfmt+0x254>
800024ac:	00c12783          	lw	a5,12(sp)
800024b0:	00778b93          	add	s7,a5,7
800024b4:	ff8bfb93          	and	s7,s7,-8
800024b8:	008b8793          	add	a5,s7,8
800024bc:	000ba483          	lw	s1,0(s7)
800024c0:	004bac03          	lw	s8,4(s7)
800024c4:	00f12623          	sw	a5,12(sp)
800024c8:	e41ff06f          	j	80002308 <vprintfmt+0x2d8>
800024cc:	00a00a93          	li	s5,10
800024d0:	00000d93          	li	s11,0
800024d4:	e79ff06f          	j	8000234c <vprintfmt+0x31c>
800024d8:	00800a93          	li	s5,8
800024dc:	00000d93          	li	s11,0
800024e0:	e6dff06f          	j	8000234c <vprintfmt+0x31c>
800024e4:	00040713          	mv	a4,s0
800024e8:	cb9ff06f          	j	800021a0 <vprintfmt+0x170>

800024ec <sprintf_putch.0>:
800024ec:	0005a783          	lw	a5,0(a1)
800024f0:	00a78023          	sb	a0,0(a5)
800024f4:	0005a783          	lw	a5,0(a1)
800024f8:	00178793          	add	a5,a5,1
800024fc:	00f5a023          	sw	a5,0(a1)
80002500:	00008067          	ret

80002504 <putchar>:
80002504:	04022803          	lw	a6,64(tp) # 40 <buflen.1>
80002508:	00020793          	mv	a5,tp
8000250c:	010787b3          	add	a5,a5,a6
80002510:	f8010113          	add	sp,sp,-128
80002514:	00180713          	add	a4,a6,1
80002518:	04e22023          	sw	a4,64(tp) # 40 <buflen.1>
8000251c:	00a78023          	sb	a0,0(a5)
80002520:	03f10693          	add	a3,sp,63
80002524:	00a00793          	li	a5,10
80002528:	fc06f693          	and	a3,a3,-64
8000252c:	00f50c63          	beq	a0,a5,80002544 <putchar+0x40>
80002530:	04000793          	li	a5,64
80002534:	00f70863          	beq	a4,a5,80002544 <putchar+0x40>
80002538:	00000513          	li	a0,0
8000253c:	08010113          	add	sp,sp,128
80002540:	00008067          	ret
80002544:	04000813          	li	a6,64
80002548:	0106a023          	sw	a6,0(a3)
8000254c:	00000893          	li	a7,0
80002550:	0116a223          	sw	a7,4(a3)
80002554:	00100e13          	li	t3,1
80002558:	01c6a423          	sw	t3,8(a3)
8000255c:	00000e93          	li	t4,0
80002560:	01d6a623          	sw	t4,12(a3)
80002564:	00020313          	mv	t1,tp
80002568:	0066a823          	sw	t1,16(a3)
8000256c:	00000393          	li	t2,0
80002570:	0076aa23          	sw	t2,20(a3)
80002574:	00e6ac23          	sw	a4,24(a3)
80002578:	41f75893          	sra	a7,a4,0x1f
8000257c:	0116ae23          	sw	a7,28(a3)
80002580:	0ff0000f          	fence
80002584:	fffff617          	auipc	a2,0xfffff
80002588:	a7c60613          	add	a2,a2,-1412 # 80001000 <tohost>
8000258c:	00d62023          	sw	a3,0(a2)
80002590:	00000793          	li	a5,0
80002594:	00f62223          	sw	a5,4(a2)
80002598:	fffff617          	auipc	a2,0xfffff
8000259c:	aa860613          	add	a2,a2,-1368 # 80001040 <fromhost>
800025a0:	00062703          	lw	a4,0(a2)
800025a4:	00462783          	lw	a5,4(a2)
800025a8:	00f76733          	or	a4,a4,a5
800025ac:	fe070ae3          	beqz	a4,800025a0 <putchar+0x9c>
800025b0:	00000793          	li	a5,0
800025b4:	00f62023          	sw	a5,0(a2)
800025b8:	00000813          	li	a6,0
800025bc:	01062223          	sw	a6,4(a2)
800025c0:	0ff0000f          	fence
800025c4:	04022023          	sw	zero,64(tp) # 40 <buflen.1>
800025c8:	0006a703          	lw	a4,0(a3)
800025cc:	00000513          	li	a0,0
800025d0:	0046a783          	lw	a5,4(a3)
800025d4:	08010113          	add	sp,sp,128
800025d8:	00008067          	ret

800025dc <setStats>:
800025dc:	b0002773          	csrr	a4,mcycle
800025e0:	00002797          	auipc	a5,0x2
800025e4:	46c78793          	add	a5,a5,1132 # 80004a4c <counters>
800025e8:	00050a63          	beqz	a0,800025fc <setStats+0x20>
800025ec:	00e7a023          	sw	a4,0(a5)
800025f0:	b0202773          	csrr	a4,minstret
800025f4:	00e7a223          	sw	a4,4(a5)
800025f8:	00008067          	ret
800025fc:	0007a603          	lw	a2,0(a5)
80002600:	00002697          	auipc	a3,0x2
80002604:	44468693          	add	a3,a3,1092 # 80004a44 <counter_names>
80002608:	40c70733          	sub	a4,a4,a2
8000260c:	00001617          	auipc	a2,0x1
80002610:	34860613          	add	a2,a2,840 # 80003954 <main+0xdc>
80002614:	00c6a023          	sw	a2,0(a3)
80002618:	00e7a023          	sw	a4,0(a5)
8000261c:	b0202773          	csrr	a4,minstret
80002620:	0047a603          	lw	a2,4(a5)
80002624:	00001597          	auipc	a1,0x1
80002628:	33858593          	add	a1,a1,824 # 8000395c <main+0xe4>
8000262c:	00b6a223          	sw	a1,4(a3)
80002630:	40c70733          	sub	a4,a4,a2
80002634:	00e7a223          	sw	a4,4(a5)
80002638:	00008067          	ret

8000263c <tohost_exit>:
8000263c:	00151693          	sll	a3,a0,0x1
80002640:	0016e713          	or	a4,a3,1
80002644:	fffff697          	auipc	a3,0xfffff
80002648:	9bc68693          	add	a3,a3,-1604 # 80001000 <tohost>
8000264c:	00000793          	li	a5,0
80002650:	00e6a023          	sw	a4,0(a3)
80002654:	00f6a223          	sw	a5,4(a3)
80002658:	0000006f          	j	80002658 <tohost_exit+0x1c>

8000265c <handle_trap>:
8000265c:	00001637          	lui	a2,0x1
80002660:	fffff797          	auipc	a5,0xfffff
80002664:	9a078793          	add	a5,a5,-1632 # 80001000 <tohost>
80002668:	a7360613          	add	a2,a2,-1421 # a73 <buflen.1+0xa33>
8000266c:	00000693          	li	a3,0
80002670:	00c7a023          	sw	a2,0(a5)
80002674:	00d7a223          	sw	a3,4(a5)
80002678:	0000006f          	j	80002678 <handle_trap+0x1c>

8000267c <exit>:
8000267c:	ff010113          	add	sp,sp,-16
80002680:	00112623          	sw	ra,12(sp)
80002684:	fb9ff0ef          	jal	8000263c <tohost_exit>

80002688 <abort>:
80002688:	fffff797          	auipc	a5,0xfffff
8000268c:	97878793          	add	a5,a5,-1672 # 80001000 <tohost>
80002690:	10d00613          	li	a2,269
80002694:	00000693          	li	a3,0
80002698:	00c7a023          	sw	a2,0(a5)
8000269c:	00d7a223          	sw	a3,4(a5)
800026a0:	0000006f          	j	800026a0 <abort+0x18>

800026a4 <printstr>:
800026a4:	00054783          	lbu	a5,0(a0)
800026a8:	f8010113          	add	sp,sp,-128
800026ac:	03f10613          	add	a2,sp,63
800026b0:	00050813          	mv	a6,a0
800026b4:	fc067613          	and	a2,a2,-64
800026b8:	00000893          	li	a7,0
800026bc:	0a078063          	beqz	a5,8000275c <printstr+0xb8>
800026c0:	00050793          	mv	a5,a0
800026c4:	0017c703          	lbu	a4,1(a5)
800026c8:	00178793          	add	a5,a5,1
800026cc:	fe071ce3          	bnez	a4,800026c4 <printstr+0x20>
800026d0:	40a78333          	sub	t1,a5,a0
800026d4:	00000393          	li	t2,0
800026d8:	04000713          	li	a4,64
800026dc:	00e62023          	sw	a4,0(a2)
800026e0:	00000793          	li	a5,0
800026e4:	00f62223          	sw	a5,4(a2)
800026e8:	00100713          	li	a4,1
800026ec:	00e62423          	sw	a4,8(a2)
800026f0:	00000793          	li	a5,0
800026f4:	00f62623          	sw	a5,12(a2)
800026f8:	01062823          	sw	a6,16(a2)
800026fc:	01162a23          	sw	a7,20(a2)
80002700:	00662c23          	sw	t1,24(a2)
80002704:	00762e23          	sw	t2,28(a2)
80002708:	0ff0000f          	fence
8000270c:	fffff697          	auipc	a3,0xfffff
80002710:	8f468693          	add	a3,a3,-1804 # 80001000 <tohost>
80002714:	00c6a023          	sw	a2,0(a3)
80002718:	00000793          	li	a5,0
8000271c:	00f6a223          	sw	a5,4(a3)
80002720:	fffff697          	auipc	a3,0xfffff
80002724:	92068693          	add	a3,a3,-1760 # 80001040 <fromhost>
80002728:	0006a703          	lw	a4,0(a3)
8000272c:	0046a783          	lw	a5,4(a3)
80002730:	00f76733          	or	a4,a4,a5
80002734:	fe070ae3          	beqz	a4,80002728 <printstr+0x84>
80002738:	00000793          	li	a5,0
8000273c:	00f6a023          	sw	a5,0(a3)
80002740:	00000813          	li	a6,0
80002744:	0106a223          	sw	a6,4(a3)
80002748:	0ff0000f          	fence
8000274c:	00062703          	lw	a4,0(a2)
80002750:	00462783          	lw	a5,4(a2)
80002754:	08010113          	add	sp,sp,128
80002758:	00008067          	ret
8000275c:	00000313          	li	t1,0
80002760:	00000393          	li	t2,0
80002764:	f75ff06f          	j	800026d8 <printstr+0x34>

80002768 <thread_entry>:
80002768:	00051063          	bnez	a0,80002768 <thread_entry>
8000276c:	00008067          	ret

80002770 <printhex>:
80002770:	fd010113          	add	sp,sp,-48
80002774:	00050713          	mv	a4,a0
80002778:	02112623          	sw	ra,44(sp)
8000277c:	00c10513          	add	a0,sp,12
80002780:	01b10693          	add	a3,sp,27
80002784:	00900813          	li	a6,9
80002788:	0080006f          	j	80002790 <printhex+0x20>
8000278c:	00078693          	mv	a3,a5
80002790:	00f77793          	and	a5,a4,15
80002794:	00f837b3          	sltu	a5,a6,a5
80002798:	40f007b3          	neg	a5,a5
8000279c:	0277f793          	and	a5,a5,39
800027a0:	00f77613          	and	a2,a4,15
800027a4:	03078793          	add	a5,a5,48
800027a8:	00f607b3          	add	a5,a2,a5
800027ac:	00f68023          	sb	a5,0(a3)
800027b0:	01c59613          	sll	a2,a1,0x1c
800027b4:	00475713          	srl	a4,a4,0x4
800027b8:	fff68793          	add	a5,a3,-1
800027bc:	00e66733          	or	a4,a2,a4
800027c0:	0045d593          	srl	a1,a1,0x4
800027c4:	fcd514e3          	bne	a0,a3,8000278c <printhex+0x1c>
800027c8:	00010e23          	sb	zero,28(sp)
800027cc:	ed9ff0ef          	jal	800026a4 <printstr>
800027d0:	02c12083          	lw	ra,44(sp)
800027d4:	03010113          	add	sp,sp,48
800027d8:	00008067          	ret

800027dc <printf>:
800027dc:	fc010113          	add	sp,sp,-64
800027e0:	02410313          	add	t1,sp,36
800027e4:	00050e13          	mv	t3,a0
800027e8:	02b12223          	sw	a1,36(sp)
800027ec:	02c12423          	sw	a2,40(sp)
800027f0:	02d12623          	sw	a3,44(sp)
800027f4:	00000517          	auipc	a0,0x0
800027f8:	d1050513          	add	a0,a0,-752 # 80002504 <putchar>
800027fc:	00030693          	mv	a3,t1
80002800:	000e0613          	mv	a2,t3
80002804:	00000593          	li	a1,0
80002808:	00112e23          	sw	ra,28(sp)
8000280c:	02e12823          	sw	a4,48(sp)
80002810:	02f12a23          	sw	a5,52(sp)
80002814:	03012c23          	sw	a6,56(sp)
80002818:	03112e23          	sw	a7,60(sp)
8000281c:	00612623          	sw	t1,12(sp)
80002820:	811ff0ef          	jal	80002030 <vprintfmt>
80002824:	01c12083          	lw	ra,28(sp)
80002828:	00000513          	li	a0,0
8000282c:	04010113          	add	sp,sp,64
80002830:	00008067          	ret

80002834 <sprintf>:
80002834:	fb010113          	add	sp,sp,-80
80002838:	03810313          	add	t1,sp,56
8000283c:	02812423          	sw	s0,40(sp)
80002840:	00a12623          	sw	a0,12(sp)
80002844:	02c12c23          	sw	a2,56(sp)
80002848:	02d12e23          	sw	a3,60(sp)
8000284c:	00050413          	mv	s0,a0
80002850:	00058613          	mv	a2,a1
80002854:	00000517          	auipc	a0,0x0
80002858:	c9850513          	add	a0,a0,-872 # 800024ec <sprintf_putch.0>
8000285c:	00c10593          	add	a1,sp,12
80002860:	00030693          	mv	a3,t1
80002864:	02112623          	sw	ra,44(sp)
80002868:	04f12223          	sw	a5,68(sp)
8000286c:	04e12023          	sw	a4,64(sp)
80002870:	05012423          	sw	a6,72(sp)
80002874:	05112623          	sw	a7,76(sp)
80002878:	00612e23          	sw	t1,28(sp)
8000287c:	fb4ff0ef          	jal	80002030 <vprintfmt>
80002880:	00c12783          	lw	a5,12(sp)
80002884:	00078023          	sb	zero,0(a5)
80002888:	00c12503          	lw	a0,12(sp)
8000288c:	02c12083          	lw	ra,44(sp)
80002890:	40850533          	sub	a0,a0,s0
80002894:	02812403          	lw	s0,40(sp)
80002898:	05010113          	add	sp,sp,80
8000289c:	00008067          	ret

800028a0 <memcpy>:
800028a0:	00b567b3          	or	a5,a0,a1
800028a4:	00c7e7b3          	or	a5,a5,a2
800028a8:	0037f793          	and	a5,a5,3
800028ac:	00c50833          	add	a6,a0,a2
800028b0:	02078463          	beqz	a5,800028d8 <memcpy+0x38>
800028b4:	00c58633          	add	a2,a1,a2
800028b8:	00050793          	mv	a5,a0
800028bc:	0b057663          	bgeu	a0,a6,80002968 <memcpy+0xc8>
800028c0:	0005c703          	lbu	a4,0(a1)
800028c4:	00158593          	add	a1,a1,1
800028c8:	00178793          	add	a5,a5,1
800028cc:	fee78fa3          	sb	a4,-1(a5)
800028d0:	fec598e3          	bne	a1,a2,800028c0 <memcpy+0x20>
800028d4:	00008067          	ret
800028d8:	02050693          	add	a3,a0,32
800028dc:	0906f863          	bgeu	a3,a6,8000296c <memcpy+0xcc>
800028e0:	00068793          	mv	a5,a3
800028e4:	00058713          	mv	a4,a1
800028e8:	00072383          	lw	t2,0(a4)
800028ec:	00472283          	lw	t0,4(a4)
800028f0:	00872f83          	lw	t6,8(a4)
800028f4:	00c72f03          	lw	t5,12(a4)
800028f8:	01072e83          	lw	t4,16(a4)
800028fc:	01472e03          	lw	t3,20(a4)
80002900:	01872303          	lw	t1,24(a4)
80002904:	01c72883          	lw	a7,28(a4)
80002908:	02078793          	add	a5,a5,32
8000290c:	fc77a023          	sw	t2,-64(a5)
80002910:	fc57a223          	sw	t0,-60(a5)
80002914:	fdf7a423          	sw	t6,-56(a5)
80002918:	fde7a623          	sw	t5,-52(a5)
8000291c:	fdd7a823          	sw	t4,-48(a5)
80002920:	fdc7aa23          	sw	t3,-44(a5)
80002924:	fc67ac23          	sw	t1,-40(a5)
80002928:	fd17ae23          	sw	a7,-36(a5)
8000292c:	02070713          	add	a4,a4,32
80002930:	fb07ece3          	bltu	a5,a6,800028e8 <memcpy+0x48>
80002934:	fdf60613          	add	a2,a2,-33
80002938:	fe067793          	and	a5,a2,-32
8000293c:	02078793          	add	a5,a5,32
80002940:	fe067613          	and	a2,a2,-32
80002944:	00f585b3          	add	a1,a1,a5
80002948:	00c687b3          	add	a5,a3,a2
8000294c:	f907f4e3          	bgeu	a5,a6,800028d4 <memcpy+0x34>
80002950:	0005a703          	lw	a4,0(a1)
80002954:	00478793          	add	a5,a5,4
80002958:	00458593          	add	a1,a1,4
8000295c:	fee7ae23          	sw	a4,-4(a5)
80002960:	ff07e8e3          	bltu	a5,a6,80002950 <memcpy+0xb0>
80002964:	00008067          	ret
80002968:	00008067          	ret
8000296c:	00050793          	mv	a5,a0
80002970:	fddff06f          	j	8000294c <memcpy+0xac>

80002974 <memset>:
80002974:	00c567b3          	or	a5,a0,a2
80002978:	0037f793          	and	a5,a5,3
8000297c:	00c50633          	add	a2,a0,a2
80002980:	02078063          	beqz	a5,800029a0 <memset+0x2c>
80002984:	0ff5f593          	zext.b	a1,a1
80002988:	00050793          	mv	a5,a0
8000298c:	04c57063          	bgeu	a0,a2,800029cc <memset+0x58>
80002990:	00178793          	add	a5,a5,1
80002994:	feb78fa3          	sb	a1,-1(a5)
80002998:	fec79ce3          	bne	a5,a2,80002990 <memset+0x1c>
8000299c:	00008067          	ret
800029a0:	0ff5f593          	zext.b	a1,a1
800029a4:	00859713          	sll	a4,a1,0x8
800029a8:	00b70733          	add	a4,a4,a1
800029ac:	01071793          	sll	a5,a4,0x10
800029b0:	00f70733          	add	a4,a4,a5
800029b4:	fec574e3          	bgeu	a0,a2,8000299c <memset+0x28>
800029b8:	00050793          	mv	a5,a0
800029bc:	00478793          	add	a5,a5,4
800029c0:	fee7ae23          	sw	a4,-4(a5)
800029c4:	fec7ece3          	bltu	a5,a2,800029bc <memset+0x48>
800029c8:	00008067          	ret
800029cc:	00008067          	ret

800029d0 <_init>:
800029d0:	f6010113          	add	sp,sp,-160
800029d4:	00002797          	auipc	a5,0x2
800029d8:	08078793          	add	a5,a5,128 # 80004a54 <_tdata_begin>
800029dc:	09412423          	sw	s4,136(sp)
800029e0:	00002a17          	auipc	s4,0x2
800029e4:	074a0a13          	add	s4,s4,116 # 80004a54 <_tdata_begin>
800029e8:	09312623          	sw	s3,140(sp)
800029ec:	40fa09b3          	sub	s3,s4,a5
800029f0:	08912a23          	sw	s1,148(sp)
800029f4:	09212823          	sw	s2,144(sp)
800029f8:	00050493          	mv	s1,a0
800029fc:	00058913          	mv	s2,a1
80002a00:	00020513          	mv	a0,tp
80002a04:	00078593          	mv	a1,a5
80002a08:	00098613          	mv	a2,s3
80002a0c:	08112e23          	sw	ra,156(sp)
80002a10:	08812c23          	sw	s0,152(sp)
80002a14:	09512223          	sw	s5,132(sp)
80002a18:	00020a93          	mv	s5,tp
80002a1c:	e85ff0ef          	jal	800028a0 <memcpy>
80002a20:	88018613          	add	a2,gp,-1920 # 80004ac4 <_tbss_end>
80002a24:	41460633          	sub	a2,a2,s4
80002a28:	00000593          	li	a1,0
80002a2c:	013a8533          	add	a0,s5,s3
80002a30:	f45ff0ef          	jal	80002974 <memset>
80002a34:	00090593          	mv	a1,s2
80002a38:	00048513          	mv	a0,s1
80002a3c:	d2dff0ef          	jal	80002768 <thread_entry>
80002a40:	00000593          	li	a1,0
80002a44:	00000513          	li	a0,0
80002a48:	631000ef          	jal	80003878 <main>
80002a4c:	00002917          	auipc	s2,0x2
80002a50:	00090913          	mv	s2,s2
80002a54:	00092683          	lw	a3,0(s2) # 80004a4c <counters>
80002a58:	03f10413          	add	s0,sp,63
80002a5c:	fc047413          	and	s0,s0,-64
80002a60:	00050493          	mv	s1,a0
80002a64:	04069463          	bnez	a3,80002aac <_init+0xdc>
80002a68:	00492683          	lw	a3,4(s2)
80002a6c:	00069663          	bnez	a3,80002a78 <_init+0xa8>
80002a70:	00048513          	mv	a0,s1
80002a74:	bc9ff0ef          	jal	8000263c <tohost_exit>
80002a78:	00040913          	mv	s2,s0
80002a7c:	00002997          	auipc	s3,0x2
80002a80:	fc898993          	add	s3,s3,-56 # 80004a44 <counter_names>
80002a84:	0049a603          	lw	a2,4(s3)
80002a88:	00090513          	mv	a0,s2
80002a8c:	00001597          	auipc	a1,0x1
80002a90:	ef458593          	add	a1,a1,-268 # 80003980 <main+0x108>
80002a94:	da1ff0ef          	jal	80002834 <sprintf>
80002a98:	00a90933          	add	s2,s2,a0
80002a9c:	fd240ae3          	beq	s0,s2,80002a70 <_init+0xa0>
80002aa0:	00040513          	mv	a0,s0
80002aa4:	c01ff0ef          	jal	800026a4 <printstr>
80002aa8:	fc9ff06f          	j	80002a70 <_init+0xa0>
80002aac:	00002997          	auipc	s3,0x2
80002ab0:	f9898993          	add	s3,s3,-104 # 80004a44 <counter_names>
80002ab4:	0009a603          	lw	a2,0(s3)
80002ab8:	00001597          	auipc	a1,0x1
80002abc:	ec858593          	add	a1,a1,-312 # 80003980 <main+0x108>
80002ac0:	00040513          	mv	a0,s0
80002ac4:	d71ff0ef          	jal	80002834 <sprintf>
80002ac8:	00492683          	lw	a3,4(s2)
80002acc:	00a40933          	add	s2,s0,a0
80002ad0:	fc0686e3          	beqz	a3,80002a9c <_init+0xcc>
80002ad4:	fb1ff06f          	j	80002a84 <_init+0xb4>

80002ad8 <strlen>:
80002ad8:	00054783          	lbu	a5,0(a0)
80002adc:	00078e63          	beqz	a5,80002af8 <strlen+0x20>
80002ae0:	00050793          	mv	a5,a0
80002ae4:	0017c703          	lbu	a4,1(a5)
80002ae8:	00178793          	add	a5,a5,1
80002aec:	fe071ce3          	bnez	a4,80002ae4 <strlen+0xc>
80002af0:	40a78533          	sub	a0,a5,a0
80002af4:	00008067          	ret
80002af8:	00000513          	li	a0,0
80002afc:	00008067          	ret

80002b00 <strnlen>:
80002b00:	00b506b3          	add	a3,a0,a1
80002b04:	00050793          	mv	a5,a0
80002b08:	00059863          	bnez	a1,80002b18 <strnlen+0x18>
80002b0c:	0240006f          	j	80002b30 <strnlen+0x30>
80002b10:	00178793          	add	a5,a5,1
80002b14:	00f68a63          	beq	a3,a5,80002b28 <strnlen+0x28>
80002b18:	0007c703          	lbu	a4,0(a5)
80002b1c:	fe071ae3          	bnez	a4,80002b10 <strnlen+0x10>
80002b20:	40a78533          	sub	a0,a5,a0
80002b24:	00008067          	ret
80002b28:	40a68533          	sub	a0,a3,a0
80002b2c:	00008067          	ret
80002b30:	00000513          	li	a0,0
80002b34:	00008067          	ret

80002b38 <strcmp>:
80002b38:	00054783          	lbu	a5,0(a0)
80002b3c:	00158593          	add	a1,a1,1
80002b40:	00150513          	add	a0,a0,1
80002b44:	fff5c703          	lbu	a4,-1(a1)
80002b48:	00078863          	beqz	a5,80002b58 <strcmp+0x20>
80002b4c:	fee786e3          	beq	a5,a4,80002b38 <strcmp>
80002b50:	40e78533          	sub	a0,a5,a4
80002b54:	00008067          	ret
80002b58:	00000793          	li	a5,0
80002b5c:	ff5ff06f          	j	80002b50 <strcmp+0x18>

80002b60 <strcpy>:
80002b60:	00050793          	mv	a5,a0
80002b64:	0005c703          	lbu	a4,0(a1)
80002b68:	00178793          	add	a5,a5,1
80002b6c:	00158593          	add	a1,a1,1
80002b70:	fee78fa3          	sb	a4,-1(a5)
80002b74:	fe0718e3          	bnez	a4,80002b64 <strcpy+0x4>
80002b78:	00008067          	ret

80002b7c <atol>:
80002b7c:	00054703          	lbu	a4,0(a0)
80002b80:	02000693          	li	a3,32
80002b84:	00050793          	mv	a5,a0
80002b88:	00d71863          	bne	a4,a3,80002b98 <atol+0x1c>
80002b8c:	0017c703          	lbu	a4,1(a5)
80002b90:	00178793          	add	a5,a5,1
80002b94:	fed70ce3          	beq	a4,a3,80002b8c <atol+0x10>
80002b98:	02d00693          	li	a3,45
80002b9c:	06d70063          	beq	a4,a3,80002bfc <atol+0x80>
80002ba0:	02b00693          	li	a3,43
80002ba4:	04d70063          	beq	a4,a3,80002be4 <atol+0x68>
80002ba8:	0007c683          	lbu	a3,0(a5)
80002bac:	00000593          	li	a1,0
80002bb0:	04068263          	beqz	a3,80002bf4 <atol+0x78>
80002bb4:	00000513          	li	a0,0
80002bb8:	00178793          	add	a5,a5,1
80002bbc:	00251713          	sll	a4,a0,0x2
80002bc0:	fd068613          	add	a2,a3,-48
80002bc4:	0007c683          	lbu	a3,0(a5)
80002bc8:	00a70733          	add	a4,a4,a0
80002bcc:	00171713          	sll	a4,a4,0x1
80002bd0:	00e60533          	add	a0,a2,a4
80002bd4:	fe0692e3          	bnez	a3,80002bb8 <atol+0x3c>
80002bd8:	02058063          	beqz	a1,80002bf8 <atol+0x7c>
80002bdc:	40a00533          	neg	a0,a0
80002be0:	00008067          	ret
80002be4:	0017c683          	lbu	a3,1(a5)
80002be8:	00000593          	li	a1,0
80002bec:	00178793          	add	a5,a5,1
80002bf0:	fc0692e3          	bnez	a3,80002bb4 <atol+0x38>
80002bf4:	00000513          	li	a0,0
80002bf8:	00008067          	ret
80002bfc:	0017c683          	lbu	a3,1(a5)
80002c00:	00100593          	li	a1,1
80002c04:	00178793          	add	a5,a5,1
80002c08:	fa0696e3          	bnez	a3,80002bb4 <atol+0x38>
80002c0c:	00000513          	li	a0,0
80002c10:	fe9ff06f          	j	80002bf8 <atol+0x7c>

80002c14 <__moddi3>:
80002c14:	00058e13          	mv	t3,a1
80002c18:	00000813          	li	a6,0
80002c1c:	0005dc63          	bgez	a1,80002c34 <__moddi3+0x20>
80002c20:	00a037b3          	snez	a5,a0
80002c24:	40b00e33          	neg	t3,a1
80002c28:	40fe0e33          	sub	t3,t3,a5
80002c2c:	40a00533          	neg	a0,a0
80002c30:	fff00813          	li	a6,-1
80002c34:	0006da63          	bgez	a3,80002c48 <__moddi3+0x34>
80002c38:	00c037b3          	snez	a5,a2
80002c3c:	40d006b3          	neg	a3,a3
80002c40:	40f686b3          	sub	a3,a3,a5
80002c44:	40c00633          	neg	a2,a2
80002c48:	00060893          	mv	a7,a2
80002c4c:	00050793          	mv	a5,a0
80002c50:	000e0593          	mv	a1,t3
80002c54:	24069463          	bnez	a3,80002e9c <__moddi3+0x288>
80002c58:	00001317          	auipc	t1,0x1
80002c5c:	e8c30313          	add	t1,t1,-372 # 80003ae4 <__clz_tab>
80002c60:	0ece7663          	bgeu	t3,a2,80002d4c <__moddi3+0x138>
80002c64:	00010737          	lui	a4,0x10
80002c68:	0ce67863          	bgeu	a2,a4,80002d38 <__moddi3+0x124>
80002c6c:	10063713          	sltiu	a4,a2,256
80002c70:	00174713          	xor	a4,a4,1
80002c74:	00371713          	sll	a4,a4,0x3
80002c78:	00e656b3          	srl	a3,a2,a4
80002c7c:	00d30333          	add	t1,t1,a3
80002c80:	00034683          	lbu	a3,0(t1)
80002c84:	00e68733          	add	a4,a3,a4
80002c88:	02000693          	li	a3,32
80002c8c:	40e68333          	sub	t1,a3,a4
80002c90:	00e68c63          	beq	a3,a4,80002ca8 <__moddi3+0x94>
80002c94:	006e15b3          	sll	a1,t3,t1
80002c98:	00e55733          	srl	a4,a0,a4
80002c9c:	006618b3          	sll	a7,a2,t1
80002ca0:	00b765b3          	or	a1,a4,a1
80002ca4:	006517b3          	sll	a5,a0,t1
80002ca8:	0108d693          	srl	a3,a7,0x10
80002cac:	02d5d733          	divu	a4,a1,a3
80002cb0:	01089513          	sll	a0,a7,0x10
80002cb4:	01055513          	srl	a0,a0,0x10
80002cb8:	02d5f5b3          	remu	a1,a1,a3
80002cbc:	02a70733          	mul	a4,a4,a0
80002cc0:	01059613          	sll	a2,a1,0x10
80002cc4:	0107d593          	srl	a1,a5,0x10
80002cc8:	00c5e5b3          	or	a1,a1,a2
80002ccc:	00e5fa63          	bgeu	a1,a4,80002ce0 <__moddi3+0xcc>
80002cd0:	00b885b3          	add	a1,a7,a1
80002cd4:	0115e663          	bltu	a1,a7,80002ce0 <__moddi3+0xcc>
80002cd8:	00e5f463          	bgeu	a1,a4,80002ce0 <__moddi3+0xcc>
80002cdc:	011585b3          	add	a1,a1,a7
80002ce0:	40e585b3          	sub	a1,a1,a4
80002ce4:	02d5d733          	divu	a4,a1,a3
80002ce8:	01079793          	sll	a5,a5,0x10
80002cec:	0107d793          	srl	a5,a5,0x10
80002cf0:	02d5f5b3          	remu	a1,a1,a3
80002cf4:	02a70733          	mul	a4,a4,a0
80002cf8:	01059593          	sll	a1,a1,0x10
80002cfc:	00b7e7b3          	or	a5,a5,a1
80002d00:	00e7fa63          	bgeu	a5,a4,80002d14 <__moddi3+0x100>
80002d04:	00f887b3          	add	a5,a7,a5
80002d08:	0117e663          	bltu	a5,a7,80002d14 <__moddi3+0x100>
80002d0c:	00e7f463          	bgeu	a5,a4,80002d14 <__moddi3+0x100>
80002d10:	011787b3          	add	a5,a5,a7
80002d14:	40e787b3          	sub	a5,a5,a4
80002d18:	0067d533          	srl	a0,a5,t1
80002d1c:	00000593          	li	a1,0
80002d20:	00080a63          	beqz	a6,80002d34 <__moddi3+0x120>
80002d24:	00a037b3          	snez	a5,a0
80002d28:	40b005b3          	neg	a1,a1
80002d2c:	40f585b3          	sub	a1,a1,a5
80002d30:	40a00533          	neg	a0,a0
80002d34:	00008067          	ret
80002d38:	010006b7          	lui	a3,0x1000
80002d3c:	01000713          	li	a4,16
80002d40:	f2d66ce3          	bltu	a2,a3,80002c78 <__moddi3+0x64>
80002d44:	01800713          	li	a4,24
80002d48:	f31ff06f          	j	80002c78 <__moddi3+0x64>
80002d4c:	00000693          	li	a3,0
80002d50:	00060c63          	beqz	a2,80002d68 <__moddi3+0x154>
80002d54:	00010737          	lui	a4,0x10
80002d58:	0ae67263          	bgeu	a2,a4,80002dfc <__moddi3+0x1e8>
80002d5c:	10063693          	sltiu	a3,a2,256
80002d60:	0016c693          	xor	a3,a3,1
80002d64:	00369693          	sll	a3,a3,0x3
80002d68:	00d65733          	srl	a4,a2,a3
80002d6c:	00e30333          	add	t1,t1,a4
80002d70:	00034703          	lbu	a4,0(t1)
80002d74:	00d70733          	add	a4,a4,a3
80002d78:	02000693          	li	a3,32
80002d7c:	40e68333          	sub	t1,a3,a4
80002d80:	08e69863          	bne	a3,a4,80002e10 <__moddi3+0x1fc>
80002d84:	40ce0733          	sub	a4,t3,a2
80002d88:	0108d593          	srl	a1,a7,0x10
80002d8c:	02b75633          	divu	a2,a4,a1
80002d90:	01089513          	sll	a0,a7,0x10
80002d94:	01055513          	srl	a0,a0,0x10
80002d98:	0107d693          	srl	a3,a5,0x10
80002d9c:	02b77733          	remu	a4,a4,a1
80002da0:	02a60633          	mul	a2,a2,a0
80002da4:	01071713          	sll	a4,a4,0x10
80002da8:	00e6e733          	or	a4,a3,a4
80002dac:	00c77a63          	bgeu	a4,a2,80002dc0 <__moddi3+0x1ac>
80002db0:	00e88733          	add	a4,a7,a4
80002db4:	01176663          	bltu	a4,a7,80002dc0 <__moddi3+0x1ac>
80002db8:	00c77463          	bgeu	a4,a2,80002dc0 <__moddi3+0x1ac>
80002dbc:	01170733          	add	a4,a4,a7
80002dc0:	40c70733          	sub	a4,a4,a2
80002dc4:	02b756b3          	divu	a3,a4,a1
80002dc8:	01079793          	sll	a5,a5,0x10
80002dcc:	0107d793          	srl	a5,a5,0x10
80002dd0:	02b77733          	remu	a4,a4,a1
80002dd4:	02a686b3          	mul	a3,a3,a0
80002dd8:	01071713          	sll	a4,a4,0x10
80002ddc:	00e7e7b3          	or	a5,a5,a4
80002de0:	00d7fa63          	bgeu	a5,a3,80002df4 <__moddi3+0x1e0>
80002de4:	00f887b3          	add	a5,a7,a5
80002de8:	0117e663          	bltu	a5,a7,80002df4 <__moddi3+0x1e0>
80002dec:	00d7f463          	bgeu	a5,a3,80002df4 <__moddi3+0x1e0>
80002df0:	011787b3          	add	a5,a5,a7
80002df4:	40d787b3          	sub	a5,a5,a3
80002df8:	f21ff06f          	j	80002d18 <__moddi3+0x104>
80002dfc:	01000737          	lui	a4,0x1000
80002e00:	01000693          	li	a3,16
80002e04:	f6e662e3          	bltu	a2,a4,80002d68 <__moddi3+0x154>
80002e08:	01800693          	li	a3,24
80002e0c:	f5dff06f          	j	80002d68 <__moddi3+0x154>
80002e10:	006618b3          	sll	a7,a2,t1
80002e14:	00ee56b3          	srl	a3,t3,a4
80002e18:	006517b3          	sll	a5,a0,t1
80002e1c:	00e55733          	srl	a4,a0,a4
80002e20:	0108d513          	srl	a0,a7,0x10
80002e24:	02a6d5b3          	divu	a1,a3,a0
80002e28:	006e1e33          	sll	t3,t3,t1
80002e2c:	01c76733          	or	a4,a4,t3
80002e30:	01089e13          	sll	t3,a7,0x10
80002e34:	010e5e13          	srl	t3,t3,0x10
80002e38:	02a6f6b3          	remu	a3,a3,a0
80002e3c:	03c585b3          	mul	a1,a1,t3
80002e40:	01069613          	sll	a2,a3,0x10
80002e44:	01075693          	srl	a3,a4,0x10
80002e48:	00c6e6b3          	or	a3,a3,a2
80002e4c:	00b6fa63          	bgeu	a3,a1,80002e60 <__moddi3+0x24c>
80002e50:	00d886b3          	add	a3,a7,a3
80002e54:	0116e663          	bltu	a3,a7,80002e60 <__moddi3+0x24c>
80002e58:	00b6f463          	bgeu	a3,a1,80002e60 <__moddi3+0x24c>
80002e5c:	011686b3          	add	a3,a3,a7
80002e60:	40b686b3          	sub	a3,a3,a1
80002e64:	02a6d633          	divu	a2,a3,a0
80002e68:	01071713          	sll	a4,a4,0x10
80002e6c:	01075713          	srl	a4,a4,0x10
80002e70:	02a6f6b3          	remu	a3,a3,a0
80002e74:	03c60633          	mul	a2,a2,t3
80002e78:	01069693          	sll	a3,a3,0x10
80002e7c:	00d76733          	or	a4,a4,a3
80002e80:	00c77a63          	bgeu	a4,a2,80002e94 <__moddi3+0x280>
80002e84:	00e88733          	add	a4,a7,a4
80002e88:	01176663          	bltu	a4,a7,80002e94 <__moddi3+0x280>
80002e8c:	00c77463          	bgeu	a4,a2,80002e94 <__moddi3+0x280>
80002e90:	01170733          	add	a4,a4,a7
80002e94:	40c70733          	sub	a4,a4,a2
80002e98:	ef1ff06f          	j	80002d88 <__moddi3+0x174>
80002e9c:	e8de62e3          	bltu	t3,a3,80002d20 <__moddi3+0x10c>
80002ea0:	00010737          	lui	a4,0x10
80002ea4:	04e6fc63          	bgeu	a3,a4,80002efc <__moddi3+0x2e8>
80002ea8:	1006b713          	sltiu	a4,a3,256
80002eac:	00174713          	xor	a4,a4,1
80002eb0:	00371713          	sll	a4,a4,0x3
80002eb4:	00e6d333          	srl	t1,a3,a4
80002eb8:	00001897          	auipc	a7,0x1
80002ebc:	c2c88893          	add	a7,a7,-980 # 80003ae4 <__clz_tab>
80002ec0:	006888b3          	add	a7,a7,t1
80002ec4:	0008c883          	lbu	a7,0(a7)
80002ec8:	02000313          	li	t1,32
80002ecc:	00e888b3          	add	a7,a7,a4
80002ed0:	41130733          	sub	a4,t1,a7
80002ed4:	03131e63          	bne	t1,a7,80002f10 <__moddi3+0x2fc>
80002ed8:	01c6e463          	bltu	a3,t3,80002ee0 <__moddi3+0x2cc>
80002edc:	00c56c63          	bltu	a0,a2,80002ef4 <__moddi3+0x2e0>
80002ee0:	40c50633          	sub	a2,a0,a2
80002ee4:	40de06b3          	sub	a3,t3,a3
80002ee8:	00c535b3          	sltu	a1,a0,a2
80002eec:	00060793          	mv	a5,a2
80002ef0:	40b685b3          	sub	a1,a3,a1
80002ef4:	00078513          	mv	a0,a5
80002ef8:	e29ff06f          	j	80002d20 <__moddi3+0x10c>
80002efc:	010008b7          	lui	a7,0x1000
80002f00:	01000713          	li	a4,16
80002f04:	fb16e8e3          	bltu	a3,a7,80002eb4 <__moddi3+0x2a0>
80002f08:	01800713          	li	a4,24
80002f0c:	fa9ff06f          	j	80002eb4 <__moddi3+0x2a0>
80002f10:	00e696b3          	sll	a3,a3,a4
80002f14:	01165333          	srl	t1,a2,a7
80002f18:	00d36333          	or	t1,t1,a3
80002f1c:	011e57b3          	srl	a5,t3,a7
80002f20:	01035e93          	srl	t4,t1,0x10
80002f24:	03d7dfb3          	divu	t6,a5,t4
80002f28:	00ee1e33          	sll	t3,t3,a4
80002f2c:	011555b3          	srl	a1,a0,a7
80002f30:	01c5e5b3          	or	a1,a1,t3
80002f34:	01031e13          	sll	t3,t1,0x10
80002f38:	010e5e13          	srl	t3,t3,0x10
80002f3c:	00e61633          	sll	a2,a2,a4
80002f40:	00e51533          	sll	a0,a0,a4
80002f44:	03d7f7b3          	remu	a5,a5,t4
80002f48:	03fe0f33          	mul	t5,t3,t6
80002f4c:	01079693          	sll	a3,a5,0x10
80002f50:	0105d793          	srl	a5,a1,0x10
80002f54:	00d7e7b3          	or	a5,a5,a3
80002f58:	000f8693          	mv	a3,t6
80002f5c:	01e7fe63          	bgeu	a5,t5,80002f78 <__moddi3+0x364>
80002f60:	00f307b3          	add	a5,t1,a5
80002f64:	ffff8693          	add	a3,t6,-1
80002f68:	0067e863          	bltu	a5,t1,80002f78 <__moddi3+0x364>
80002f6c:	01e7f663          	bgeu	a5,t5,80002f78 <__moddi3+0x364>
80002f70:	ffef8693          	add	a3,t6,-2
80002f74:	006787b3          	add	a5,a5,t1
80002f78:	41e787b3          	sub	a5,a5,t5
80002f7c:	03d7df33          	divu	t5,a5,t4
80002f80:	01059593          	sll	a1,a1,0x10
80002f84:	0105d593          	srl	a1,a1,0x10
80002f88:	03d7f7b3          	remu	a5,a5,t4
80002f8c:	03ee0e33          	mul	t3,t3,t5
80002f90:	01079793          	sll	a5,a5,0x10
80002f94:	00f5e5b3          	or	a1,a1,a5
80002f98:	000f0793          	mv	a5,t5
80002f9c:	01c5fe63          	bgeu	a1,t3,80002fb8 <__moddi3+0x3a4>
80002fa0:	00b305b3          	add	a1,t1,a1
80002fa4:	ffff0793          	add	a5,t5,-1
80002fa8:	0065e863          	bltu	a1,t1,80002fb8 <__moddi3+0x3a4>
80002fac:	01c5f663          	bgeu	a1,t3,80002fb8 <__moddi3+0x3a4>
80002fb0:	ffef0793          	add	a5,t5,-2
80002fb4:	006585b3          	add	a1,a1,t1
80002fb8:	01069693          	sll	a3,a3,0x10
80002fbc:	00010fb7          	lui	t6,0x10
80002fc0:	00f6e6b3          	or	a3,a3,a5
80002fc4:	41c585b3          	sub	a1,a1,t3
80002fc8:	ffff8e13          	add	t3,t6,-1 # ffff <buflen.1+0xffbf>
80002fcc:	01c6f7b3          	and	a5,a3,t3
80002fd0:	01065e93          	srl	t4,a2,0x10
80002fd4:	0106d693          	srl	a3,a3,0x10
80002fd8:	01c67e33          	and	t3,a2,t3
80002fdc:	03c78f33          	mul	t5,a5,t3
80002fe0:	03c68e33          	mul	t3,a3,t3
80002fe4:	03d787b3          	mul	a5,a5,t4
80002fe8:	03d686b3          	mul	a3,a3,t4
80002fec:	01c78eb3          	add	t4,a5,t3
80002ff0:	010f5793          	srl	a5,t5,0x10
80002ff4:	01d787b3          	add	a5,a5,t4
80002ff8:	01c7f463          	bgeu	a5,t3,80003000 <__moddi3+0x3ec>
80002ffc:	01f686b3          	add	a3,a3,t6
80003000:	0107de13          	srl	t3,a5,0x10
80003004:	00de06b3          	add	a3,t3,a3
80003008:	00010e37          	lui	t3,0x10
8000300c:	fffe0e13          	add	t3,t3,-1 # ffff <buflen.1+0xffbf>
80003010:	01c7f7b3          	and	a5,a5,t3
80003014:	01079793          	sll	a5,a5,0x10
80003018:	01cf7f33          	and	t5,t5,t3
8000301c:	01e787b3          	add	a5,a5,t5
80003020:	00d5e663          	bltu	a1,a3,8000302c <__moddi3+0x418>
80003024:	00d59e63          	bne	a1,a3,80003040 <__moddi3+0x42c>
80003028:	00f57c63          	bgeu	a0,a5,80003040 <__moddi3+0x42c>
8000302c:	40c78633          	sub	a2,a5,a2
80003030:	00c7be33          	sltu	t3,a5,a2
80003034:	00060793          	mv	a5,a2
80003038:	006e0633          	add	a2,t3,t1
8000303c:	40c686b3          	sub	a3,a3,a2
80003040:	40f507b3          	sub	a5,a0,a5
80003044:	00f53533          	sltu	a0,a0,a5
80003048:	40d585b3          	sub	a1,a1,a3
8000304c:	40a585b3          	sub	a1,a1,a0
80003050:	011598b3          	sll	a7,a1,a7
80003054:	00e7d7b3          	srl	a5,a5,a4
80003058:	00f8e533          	or	a0,a7,a5
8000305c:	00e5d5b3          	srl	a1,a1,a4
80003060:	cc1ff06f          	j	80002d20 <__moddi3+0x10c>

80003064 <__udivdi3>:
80003064:	00050893          	mv	a7,a0
80003068:	00058313          	mv	t1,a1
8000306c:	00060713          	mv	a4,a2
80003070:	00050813          	mv	a6,a0
80003074:	00058793          	mv	a5,a1
80003078:	28069263          	bnez	a3,800032fc <__udivdi3+0x298>
8000307c:	00001597          	auipc	a1,0x1
80003080:	a6858593          	add	a1,a1,-1432 # 80003ae4 <__clz_tab>
80003084:	0ec37663          	bgeu	t1,a2,80003170 <__udivdi3+0x10c>
80003088:	000106b7          	lui	a3,0x10
8000308c:	0cd67863          	bgeu	a2,a3,8000315c <__udivdi3+0xf8>
80003090:	10063693          	sltiu	a3,a2,256
80003094:	0016c693          	xor	a3,a3,1
80003098:	00369693          	sll	a3,a3,0x3
8000309c:	00d65533          	srl	a0,a2,a3
800030a0:	00a585b3          	add	a1,a1,a0
800030a4:	0005c583          	lbu	a1,0(a1)
800030a8:	02000513          	li	a0,32
800030ac:	00d586b3          	add	a3,a1,a3
800030b0:	40d505b3          	sub	a1,a0,a3
800030b4:	00d50c63          	beq	a0,a3,800030cc <__udivdi3+0x68>
800030b8:	00b317b3          	sll	a5,t1,a1
800030bc:	00d8d6b3          	srl	a3,a7,a3
800030c0:	00b61733          	sll	a4,a2,a1
800030c4:	00f6e7b3          	or	a5,a3,a5
800030c8:	00b89833          	sll	a6,a7,a1
800030cc:	01075593          	srl	a1,a4,0x10
800030d0:	02b7d333          	divu	t1,a5,a1
800030d4:	01071613          	sll	a2,a4,0x10
800030d8:	01065613          	srl	a2,a2,0x10
800030dc:	02b7f7b3          	remu	a5,a5,a1
800030e0:	00030513          	mv	a0,t1
800030e4:	026608b3          	mul	a7,a2,t1
800030e8:	01079693          	sll	a3,a5,0x10
800030ec:	01085793          	srl	a5,a6,0x10
800030f0:	00d7e7b3          	or	a5,a5,a3
800030f4:	0117fe63          	bgeu	a5,a7,80003110 <__udivdi3+0xac>
800030f8:	00f707b3          	add	a5,a4,a5
800030fc:	fff30513          	add	a0,t1,-1
80003100:	00e7e863          	bltu	a5,a4,80003110 <__udivdi3+0xac>
80003104:	0117f663          	bgeu	a5,a7,80003110 <__udivdi3+0xac>
80003108:	ffe30513          	add	a0,t1,-2
8000310c:	00e787b3          	add	a5,a5,a4
80003110:	411787b3          	sub	a5,a5,a7
80003114:	02b7d8b3          	divu	a7,a5,a1
80003118:	01081813          	sll	a6,a6,0x10
8000311c:	01085813          	srl	a6,a6,0x10
80003120:	02b7f7b3          	remu	a5,a5,a1
80003124:	031606b3          	mul	a3,a2,a7
80003128:	01079793          	sll	a5,a5,0x10
8000312c:	00f86833          	or	a6,a6,a5
80003130:	00088793          	mv	a5,a7
80003134:	00d87c63          	bgeu	a6,a3,8000314c <__udivdi3+0xe8>
80003138:	01070833          	add	a6,a4,a6
8000313c:	fff88793          	add	a5,a7,-1 # ffffff <buflen.1+0xffffbf>
80003140:	00e86663          	bltu	a6,a4,8000314c <__udivdi3+0xe8>
80003144:	00d87463          	bgeu	a6,a3,8000314c <__udivdi3+0xe8>
80003148:	ffe88793          	add	a5,a7,-2
8000314c:	01051513          	sll	a0,a0,0x10
80003150:	00f56533          	or	a0,a0,a5
80003154:	00000593          	li	a1,0
80003158:	00008067          	ret
8000315c:	01000537          	lui	a0,0x1000
80003160:	01000693          	li	a3,16
80003164:	f2a66ce3          	bltu	a2,a0,8000309c <__udivdi3+0x38>
80003168:	01800693          	li	a3,24
8000316c:	f31ff06f          	j	8000309c <__udivdi3+0x38>
80003170:	00000693          	li	a3,0
80003174:	00060c63          	beqz	a2,8000318c <__udivdi3+0x128>
80003178:	000107b7          	lui	a5,0x10
8000317c:	0cf67063          	bgeu	a2,a5,8000323c <__udivdi3+0x1d8>
80003180:	10063693          	sltiu	a3,a2,256
80003184:	0016c693          	xor	a3,a3,1
80003188:	00369693          	sll	a3,a3,0x3
8000318c:	00d657b3          	srl	a5,a2,a3
80003190:	00f585b3          	add	a1,a1,a5
80003194:	0005c783          	lbu	a5,0(a1)
80003198:	00d787b3          	add	a5,a5,a3
8000319c:	02000693          	li	a3,32
800031a0:	40f685b3          	sub	a1,a3,a5
800031a4:	0af69663          	bne	a3,a5,80003250 <__udivdi3+0x1ec>
800031a8:	40c307b3          	sub	a5,t1,a2
800031ac:	00100593          	li	a1,1
800031b0:	01075893          	srl	a7,a4,0x10
800031b4:	0317de33          	divu	t3,a5,a7
800031b8:	01071613          	sll	a2,a4,0x10
800031bc:	01065613          	srl	a2,a2,0x10
800031c0:	01085693          	srl	a3,a6,0x10
800031c4:	0317f7b3          	remu	a5,a5,a7
800031c8:	000e0513          	mv	a0,t3
800031cc:	03c60333          	mul	t1,a2,t3
800031d0:	01079793          	sll	a5,a5,0x10
800031d4:	00f6e7b3          	or	a5,a3,a5
800031d8:	0067fe63          	bgeu	a5,t1,800031f4 <__udivdi3+0x190>
800031dc:	00f707b3          	add	a5,a4,a5
800031e0:	fffe0513          	add	a0,t3,-1
800031e4:	00e7e863          	bltu	a5,a4,800031f4 <__udivdi3+0x190>
800031e8:	0067f663          	bgeu	a5,t1,800031f4 <__udivdi3+0x190>
800031ec:	ffee0513          	add	a0,t3,-2
800031f0:	00e787b3          	add	a5,a5,a4
800031f4:	406787b3          	sub	a5,a5,t1
800031f8:	0317d333          	divu	t1,a5,a7
800031fc:	01081813          	sll	a6,a6,0x10
80003200:	01085813          	srl	a6,a6,0x10
80003204:	0317f7b3          	remu	a5,a5,a7
80003208:	026606b3          	mul	a3,a2,t1
8000320c:	01079793          	sll	a5,a5,0x10
80003210:	00f86833          	or	a6,a6,a5
80003214:	00030793          	mv	a5,t1
80003218:	00d87c63          	bgeu	a6,a3,80003230 <__udivdi3+0x1cc>
8000321c:	01070833          	add	a6,a4,a6
80003220:	fff30793          	add	a5,t1,-1
80003224:	00e86663          	bltu	a6,a4,80003230 <__udivdi3+0x1cc>
80003228:	00d87463          	bgeu	a6,a3,80003230 <__udivdi3+0x1cc>
8000322c:	ffe30793          	add	a5,t1,-2
80003230:	01051513          	sll	a0,a0,0x10
80003234:	00f56533          	or	a0,a0,a5
80003238:	00008067          	ret
8000323c:	010007b7          	lui	a5,0x1000
80003240:	01000693          	li	a3,16
80003244:	f4f664e3          	bltu	a2,a5,8000318c <__udivdi3+0x128>
80003248:	01800693          	li	a3,24
8000324c:	f41ff06f          	j	8000318c <__udivdi3+0x128>
80003250:	00b61733          	sll	a4,a2,a1
80003254:	00f356b3          	srl	a3,t1,a5
80003258:	01075513          	srl	a0,a4,0x10
8000325c:	00b31333          	sll	t1,t1,a1
80003260:	00f8d7b3          	srl	a5,a7,a5
80003264:	0067e7b3          	or	a5,a5,t1
80003268:	02a6d333          	divu	t1,a3,a0
8000326c:	01071613          	sll	a2,a4,0x10
80003270:	01065613          	srl	a2,a2,0x10
80003274:	00b89833          	sll	a6,a7,a1
80003278:	02a6f6b3          	remu	a3,a3,a0
8000327c:	026608b3          	mul	a7,a2,t1
80003280:	01069593          	sll	a1,a3,0x10
80003284:	0107d693          	srl	a3,a5,0x10
80003288:	00b6e6b3          	or	a3,a3,a1
8000328c:	00030593          	mv	a1,t1
80003290:	0116fe63          	bgeu	a3,a7,800032ac <__udivdi3+0x248>
80003294:	00d706b3          	add	a3,a4,a3
80003298:	fff30593          	add	a1,t1,-1
8000329c:	00e6e863          	bltu	a3,a4,800032ac <__udivdi3+0x248>
800032a0:	0116f663          	bgeu	a3,a7,800032ac <__udivdi3+0x248>
800032a4:	ffe30593          	add	a1,t1,-2
800032a8:	00e686b3          	add	a3,a3,a4
800032ac:	411686b3          	sub	a3,a3,a7
800032b0:	02a6d8b3          	divu	a7,a3,a0
800032b4:	01079793          	sll	a5,a5,0x10
800032b8:	0107d793          	srl	a5,a5,0x10
800032bc:	02a6f6b3          	remu	a3,a3,a0
800032c0:	03160633          	mul	a2,a2,a7
800032c4:	01069693          	sll	a3,a3,0x10
800032c8:	00d7e7b3          	or	a5,a5,a3
800032cc:	00088693          	mv	a3,a7
800032d0:	00c7fe63          	bgeu	a5,a2,800032ec <__udivdi3+0x288>
800032d4:	00f707b3          	add	a5,a4,a5
800032d8:	fff88693          	add	a3,a7,-1
800032dc:	00e7e863          	bltu	a5,a4,800032ec <__udivdi3+0x288>
800032e0:	00c7f663          	bgeu	a5,a2,800032ec <__udivdi3+0x288>
800032e4:	ffe88693          	add	a3,a7,-2
800032e8:	00e787b3          	add	a5,a5,a4
800032ec:	01059593          	sll	a1,a1,0x10
800032f0:	40c787b3          	sub	a5,a5,a2
800032f4:	00d5e5b3          	or	a1,a1,a3
800032f8:	eb9ff06f          	j	800031b0 <__udivdi3+0x14c>
800032fc:	18d5e663          	bltu	a1,a3,80003488 <__udivdi3+0x424>
80003300:	000107b7          	lui	a5,0x10
80003304:	04f6f463          	bgeu	a3,a5,8000334c <__udivdi3+0x2e8>
80003308:	1006b713          	sltiu	a4,a3,256
8000330c:	00174713          	xor	a4,a4,1
80003310:	00371713          	sll	a4,a4,0x3
80003314:	00e6d5b3          	srl	a1,a3,a4
80003318:	00000797          	auipc	a5,0x0
8000331c:	7cc78793          	add	a5,a5,1996 # 80003ae4 <__clz_tab>
80003320:	00b787b3          	add	a5,a5,a1
80003324:	0007c783          	lbu	a5,0(a5)
80003328:	00e787b3          	add	a5,a5,a4
8000332c:	02000713          	li	a4,32
80003330:	40f705b3          	sub	a1,a4,a5
80003334:	02f71663          	bne	a4,a5,80003360 <__udivdi3+0x2fc>
80003338:	00100513          	li	a0,1
8000333c:	e066eee3          	bltu	a3,t1,80003158 <__udivdi3+0xf4>
80003340:	00c8b533          	sltu	a0,a7,a2
80003344:	00154513          	xor	a0,a0,1
80003348:	00008067          	ret
8000334c:	010007b7          	lui	a5,0x1000
80003350:	01000713          	li	a4,16
80003354:	fcf6e0e3          	bltu	a3,a5,80003314 <__udivdi3+0x2b0>
80003358:	01800713          	li	a4,24
8000335c:	fb9ff06f          	j	80003314 <__udivdi3+0x2b0>
80003360:	00f65733          	srl	a4,a2,a5
80003364:	00b696b3          	sll	a3,a3,a1
80003368:	00d766b3          	or	a3,a4,a3
8000336c:	00f35733          	srl	a4,t1,a5
80003370:	00b31333          	sll	t1,t1,a1
80003374:	00f8d7b3          	srl	a5,a7,a5
80003378:	0067e7b3          	or	a5,a5,t1
8000337c:	0106d313          	srl	t1,a3,0x10
80003380:	02675eb3          	divu	t4,a4,t1
80003384:	01069813          	sll	a6,a3,0x10
80003388:	01085813          	srl	a6,a6,0x10
8000338c:	00b61633          	sll	a2,a2,a1
80003390:	02677733          	remu	a4,a4,t1
80003394:	03d80e33          	mul	t3,a6,t4
80003398:	01071513          	sll	a0,a4,0x10
8000339c:	0107d713          	srl	a4,a5,0x10
800033a0:	00a76733          	or	a4,a4,a0
800033a4:	000e8513          	mv	a0,t4
800033a8:	01c77e63          	bgeu	a4,t3,800033c4 <__udivdi3+0x360>
800033ac:	00e68733          	add	a4,a3,a4
800033b0:	fffe8513          	add	a0,t4,-1
800033b4:	00d76863          	bltu	a4,a3,800033c4 <__udivdi3+0x360>
800033b8:	01c77663          	bgeu	a4,t3,800033c4 <__udivdi3+0x360>
800033bc:	ffee8513          	add	a0,t4,-2
800033c0:	00d70733          	add	a4,a4,a3
800033c4:	41c70733          	sub	a4,a4,t3
800033c8:	02675e33          	divu	t3,a4,t1
800033cc:	01079793          	sll	a5,a5,0x10
800033d0:	0107d793          	srl	a5,a5,0x10
800033d4:	02677733          	remu	a4,a4,t1
800033d8:	03c80833          	mul	a6,a6,t3
800033dc:	01071713          	sll	a4,a4,0x10
800033e0:	00e7e7b3          	or	a5,a5,a4
800033e4:	000e0713          	mv	a4,t3
800033e8:	0107fe63          	bgeu	a5,a6,80003404 <__udivdi3+0x3a0>
800033ec:	00f687b3          	add	a5,a3,a5
800033f0:	fffe0713          	add	a4,t3,-1
800033f4:	00d7e863          	bltu	a5,a3,80003404 <__udivdi3+0x3a0>
800033f8:	0107f663          	bgeu	a5,a6,80003404 <__udivdi3+0x3a0>
800033fc:	ffee0713          	add	a4,t3,-2
80003400:	00d787b3          	add	a5,a5,a3
80003404:	01051513          	sll	a0,a0,0x10
80003408:	00010e37          	lui	t3,0x10
8000340c:	00e56533          	or	a0,a0,a4
80003410:	fffe0693          	add	a3,t3,-1 # ffff <buflen.1+0xffbf>
80003414:	00d57733          	and	a4,a0,a3
80003418:	410787b3          	sub	a5,a5,a6
8000341c:	00d676b3          	and	a3,a2,a3
80003420:	01055813          	srl	a6,a0,0x10
80003424:	01065613          	srl	a2,a2,0x10
80003428:	02d70333          	mul	t1,a4,a3
8000342c:	02d806b3          	mul	a3,a6,a3
80003430:	02c70733          	mul	a4,a4,a2
80003434:	02c80833          	mul	a6,a6,a2
80003438:	00d70633          	add	a2,a4,a3
8000343c:	01035713          	srl	a4,t1,0x10
80003440:	00c70733          	add	a4,a4,a2
80003444:	00d77463          	bgeu	a4,a3,8000344c <__udivdi3+0x3e8>
80003448:	01c80833          	add	a6,a6,t3
8000344c:	01075693          	srl	a3,a4,0x10
80003450:	010686b3          	add	a3,a3,a6
80003454:	02d7e663          	bltu	a5,a3,80003480 <__udivdi3+0x41c>
80003458:	ced79ee3          	bne	a5,a3,80003154 <__udivdi3+0xf0>
8000345c:	000107b7          	lui	a5,0x10
80003460:	fff78793          	add	a5,a5,-1 # ffff <buflen.1+0xffbf>
80003464:	00f77733          	and	a4,a4,a5
80003468:	01071713          	sll	a4,a4,0x10
8000346c:	00f37333          	and	t1,t1,a5
80003470:	00b898b3          	sll	a7,a7,a1
80003474:	00670733          	add	a4,a4,t1
80003478:	00000593          	li	a1,0
8000347c:	cce8fee3          	bgeu	a7,a4,80003158 <__udivdi3+0xf4>
80003480:	fff50513          	add	a0,a0,-1 # ffffff <buflen.1+0xffffbf>
80003484:	cd1ff06f          	j	80003154 <__udivdi3+0xf0>
80003488:	00000593          	li	a1,0
8000348c:	00000513          	li	a0,0
80003490:	00008067          	ret

80003494 <__umoddi3>:
80003494:	00060813          	mv	a6,a2
80003498:	00050793          	mv	a5,a0
8000349c:	00058713          	mv	a4,a1
800034a0:	20069663          	bnez	a3,800036ac <__umoddi3+0x218>
800034a4:	00000897          	auipc	a7,0x0
800034a8:	64088893          	add	a7,a7,1600 # 80003ae4 <__clz_tab>
800034ac:	0cc5fc63          	bgeu	a1,a2,80003584 <__umoddi3+0xf0>
800034b0:	000106b7          	lui	a3,0x10
800034b4:	0ad67e63          	bgeu	a2,a3,80003570 <__umoddi3+0xdc>
800034b8:	10063693          	sltiu	a3,a2,256
800034bc:	0016c693          	xor	a3,a3,1
800034c0:	00369693          	sll	a3,a3,0x3
800034c4:	00d65333          	srl	t1,a2,a3
800034c8:	006888b3          	add	a7,a7,t1
800034cc:	0008c883          	lbu	a7,0(a7)
800034d0:	02000313          	li	t1,32
800034d4:	00d886b3          	add	a3,a7,a3
800034d8:	40d308b3          	sub	a7,t1,a3
800034dc:	00d30c63          	beq	t1,a3,800034f4 <__umoddi3+0x60>
800034e0:	01159733          	sll	a4,a1,a7
800034e4:	00d556b3          	srl	a3,a0,a3
800034e8:	01161833          	sll	a6,a2,a7
800034ec:	00e6e733          	or	a4,a3,a4
800034f0:	011517b3          	sll	a5,a0,a7
800034f4:	01085613          	srl	a2,a6,0x10
800034f8:	02c756b3          	divu	a3,a4,a2
800034fc:	01081513          	sll	a0,a6,0x10
80003500:	01055513          	srl	a0,a0,0x10
80003504:	02c77733          	remu	a4,a4,a2
80003508:	02a686b3          	mul	a3,a3,a0
8000350c:	01071593          	sll	a1,a4,0x10
80003510:	0107d713          	srl	a4,a5,0x10
80003514:	00b76733          	or	a4,a4,a1
80003518:	00d77a63          	bgeu	a4,a3,8000352c <__umoddi3+0x98>
8000351c:	00e80733          	add	a4,a6,a4
80003520:	01076663          	bltu	a4,a6,8000352c <__umoddi3+0x98>
80003524:	00d77463          	bgeu	a4,a3,8000352c <__umoddi3+0x98>
80003528:	01070733          	add	a4,a4,a6
8000352c:	40d70733          	sub	a4,a4,a3
80003530:	02c756b3          	divu	a3,a4,a2
80003534:	02c77733          	remu	a4,a4,a2
80003538:	02a686b3          	mul	a3,a3,a0
8000353c:	01079793          	sll	a5,a5,0x10
80003540:	01071713          	sll	a4,a4,0x10
80003544:	0107d793          	srl	a5,a5,0x10
80003548:	00e7e7b3          	or	a5,a5,a4
8000354c:	00d7fa63          	bgeu	a5,a3,80003560 <__umoddi3+0xcc>
80003550:	00f807b3          	add	a5,a6,a5
80003554:	0107e663          	bltu	a5,a6,80003560 <__umoddi3+0xcc>
80003558:	00d7f463          	bgeu	a5,a3,80003560 <__umoddi3+0xcc>
8000355c:	010787b3          	add	a5,a5,a6
80003560:	40d787b3          	sub	a5,a5,a3
80003564:	0117d533          	srl	a0,a5,a7
80003568:	00000593          	li	a1,0
8000356c:	00008067          	ret
80003570:	01000337          	lui	t1,0x1000
80003574:	01000693          	li	a3,16
80003578:	f46666e3          	bltu	a2,t1,800034c4 <__umoddi3+0x30>
8000357c:	01800693          	li	a3,24
80003580:	f45ff06f          	j	800034c4 <__umoddi3+0x30>
80003584:	00000693          	li	a3,0
80003588:	00060c63          	beqz	a2,800035a0 <__umoddi3+0x10c>
8000358c:	00010737          	lui	a4,0x10
80003590:	06e67e63          	bgeu	a2,a4,8000360c <__umoddi3+0x178>
80003594:	10063693          	sltiu	a3,a2,256
80003598:	0016c693          	xor	a3,a3,1
8000359c:	00369693          	sll	a3,a3,0x3
800035a0:	00d65733          	srl	a4,a2,a3
800035a4:	00e888b3          	add	a7,a7,a4
800035a8:	0008c703          	lbu	a4,0(a7)
800035ac:	00d70733          	add	a4,a4,a3
800035b0:	02000693          	li	a3,32
800035b4:	40e688b3          	sub	a7,a3,a4
800035b8:	06e69463          	bne	a3,a4,80003620 <__umoddi3+0x18c>
800035bc:	40c58733          	sub	a4,a1,a2
800035c0:	01085593          	srl	a1,a6,0x10
800035c4:	02b75633          	divu	a2,a4,a1
800035c8:	01081513          	sll	a0,a6,0x10
800035cc:	01055513          	srl	a0,a0,0x10
800035d0:	0107d693          	srl	a3,a5,0x10
800035d4:	02b77733          	remu	a4,a4,a1
800035d8:	02a60633          	mul	a2,a2,a0
800035dc:	01071713          	sll	a4,a4,0x10
800035e0:	00e6e733          	or	a4,a3,a4
800035e4:	00c77a63          	bgeu	a4,a2,800035f8 <__umoddi3+0x164>
800035e8:	00e80733          	add	a4,a6,a4
800035ec:	01076663          	bltu	a4,a6,800035f8 <__umoddi3+0x164>
800035f0:	00c77463          	bgeu	a4,a2,800035f8 <__umoddi3+0x164>
800035f4:	01070733          	add	a4,a4,a6
800035f8:	40c70733          	sub	a4,a4,a2
800035fc:	02b756b3          	divu	a3,a4,a1
80003600:	02b77733          	remu	a4,a4,a1
80003604:	02a686b3          	mul	a3,a3,a0
80003608:	f35ff06f          	j	8000353c <__umoddi3+0xa8>
8000360c:	01000737          	lui	a4,0x1000
80003610:	01000693          	li	a3,16
80003614:	f8e666e3          	bltu	a2,a4,800035a0 <__umoddi3+0x10c>
80003618:	01800693          	li	a3,24
8000361c:	f85ff06f          	j	800035a0 <__umoddi3+0x10c>
80003620:	01161833          	sll	a6,a2,a7
80003624:	00e5d6b3          	srl	a3,a1,a4
80003628:	011517b3          	sll	a5,a0,a7
8000362c:	011595b3          	sll	a1,a1,a7
80003630:	00e55733          	srl	a4,a0,a4
80003634:	01085513          	srl	a0,a6,0x10
80003638:	00b76733          	or	a4,a4,a1
8000363c:	02a6d5b3          	divu	a1,a3,a0
80003640:	01081313          	sll	t1,a6,0x10
80003644:	01035313          	srl	t1,t1,0x10
80003648:	02a6f6b3          	remu	a3,a3,a0
8000364c:	026585b3          	mul	a1,a1,t1
80003650:	01069613          	sll	a2,a3,0x10
80003654:	01075693          	srl	a3,a4,0x10
80003658:	00c6e6b3          	or	a3,a3,a2
8000365c:	00b6fa63          	bgeu	a3,a1,80003670 <__umoddi3+0x1dc>
80003660:	00d806b3          	add	a3,a6,a3
80003664:	0106e663          	bltu	a3,a6,80003670 <__umoddi3+0x1dc>
80003668:	00b6f463          	bgeu	a3,a1,80003670 <__umoddi3+0x1dc>
8000366c:	010686b3          	add	a3,a3,a6
80003670:	40b686b3          	sub	a3,a3,a1
80003674:	02a6d633          	divu	a2,a3,a0
80003678:	01071713          	sll	a4,a4,0x10
8000367c:	01075713          	srl	a4,a4,0x10
80003680:	02a6f6b3          	remu	a3,a3,a0
80003684:	02660633          	mul	a2,a2,t1
80003688:	01069693          	sll	a3,a3,0x10
8000368c:	00d76733          	or	a4,a4,a3
80003690:	00c77a63          	bgeu	a4,a2,800036a4 <__umoddi3+0x210>
80003694:	00e80733          	add	a4,a6,a4
80003698:	01076663          	bltu	a4,a6,800036a4 <__umoddi3+0x210>
8000369c:	00c77463          	bgeu	a4,a2,800036a4 <__umoddi3+0x210>
800036a0:	01070733          	add	a4,a4,a6
800036a4:	40c70733          	sub	a4,a4,a2
800036a8:	f19ff06f          	j	800035c0 <__umoddi3+0x12c>
800036ac:	1cd5e463          	bltu	a1,a3,80003874 <__umoddi3+0x3e0>
800036b0:	00010837          	lui	a6,0x10
800036b4:	0506fe63          	bgeu	a3,a6,80003710 <__umoddi3+0x27c>
800036b8:	1006b813          	sltiu	a6,a3,256
800036bc:	00184813          	xor	a6,a6,1
800036c0:	00381813          	sll	a6,a6,0x3
800036c4:	0106d333          	srl	t1,a3,a6
800036c8:	00000897          	auipc	a7,0x0
800036cc:	41c88893          	add	a7,a7,1052 # 80003ae4 <__clz_tab>
800036d0:	006888b3          	add	a7,a7,t1
800036d4:	0008c883          	lbu	a7,0(a7)
800036d8:	02000313          	li	t1,32
800036dc:	010888b3          	add	a7,a7,a6
800036e0:	41130833          	sub	a6,t1,a7
800036e4:	05131063          	bne	t1,a7,80003724 <__umoddi3+0x290>
800036e8:	00b6e463          	bltu	a3,a1,800036f0 <__umoddi3+0x25c>
800036ec:	00c56c63          	bltu	a0,a2,80003704 <__umoddi3+0x270>
800036f0:	40c50633          	sub	a2,a0,a2
800036f4:	40d586b3          	sub	a3,a1,a3
800036f8:	00c53733          	sltu	a4,a0,a2
800036fc:	00060793          	mv	a5,a2
80003700:	40e68733          	sub	a4,a3,a4
80003704:	00078513          	mv	a0,a5
80003708:	00070593          	mv	a1,a4
8000370c:	00008067          	ret
80003710:	010008b7          	lui	a7,0x1000
80003714:	01000813          	li	a6,16
80003718:	fb16e6e3          	bltu	a3,a7,800036c4 <__umoddi3+0x230>
8000371c:	01800813          	li	a6,24
80003720:	fa5ff06f          	j	800036c4 <__umoddi3+0x230>
80003724:	011657b3          	srl	a5,a2,a7
80003728:	010696b3          	sll	a3,a3,a6
8000372c:	00d7e6b3          	or	a3,a5,a3
80003730:	0115d733          	srl	a4,a1,a7
80003734:	0106de13          	srl	t3,a3,0x10
80003738:	03c75f33          	divu	t5,a4,t3
8000373c:	01069313          	sll	t1,a3,0x10
80003740:	01035313          	srl	t1,t1,0x10
80003744:	010597b3          	sll	a5,a1,a6
80003748:	011555b3          	srl	a1,a0,a7
8000374c:	00f5e5b3          	or	a1,a1,a5
80003750:	0105d793          	srl	a5,a1,0x10
80003754:	01061633          	sll	a2,a2,a6
80003758:	01051533          	sll	a0,a0,a6
8000375c:	03c77733          	remu	a4,a4,t3
80003760:	03e30eb3          	mul	t4,t1,t5
80003764:	01071713          	sll	a4,a4,0x10
80003768:	00e7e7b3          	or	a5,a5,a4
8000376c:	000f0713          	mv	a4,t5
80003770:	01d7fe63          	bgeu	a5,t4,8000378c <__umoddi3+0x2f8>
80003774:	00f687b3          	add	a5,a3,a5
80003778:	ffff0713          	add	a4,t5,-1
8000377c:	00d7e863          	bltu	a5,a3,8000378c <__umoddi3+0x2f8>
80003780:	01d7f663          	bgeu	a5,t4,8000378c <__umoddi3+0x2f8>
80003784:	ffef0713          	add	a4,t5,-2
80003788:	00d787b3          	add	a5,a5,a3
8000378c:	41d787b3          	sub	a5,a5,t4
80003790:	03c7deb3          	divu	t4,a5,t3
80003794:	01059593          	sll	a1,a1,0x10
80003798:	0105d593          	srl	a1,a1,0x10
8000379c:	03c7f7b3          	remu	a5,a5,t3
800037a0:	000e8e13          	mv	t3,t4
800037a4:	03d30333          	mul	t1,t1,t4
800037a8:	01079793          	sll	a5,a5,0x10
800037ac:	00f5e5b3          	or	a1,a1,a5
800037b0:	0065fe63          	bgeu	a1,t1,800037cc <__umoddi3+0x338>
800037b4:	00b685b3          	add	a1,a3,a1
800037b8:	fffe8e13          	add	t3,t4,-1
800037bc:	00d5e863          	bltu	a1,a3,800037cc <__umoddi3+0x338>
800037c0:	0065f663          	bgeu	a1,t1,800037cc <__umoddi3+0x338>
800037c4:	ffee8e13          	add	t3,t4,-2
800037c8:	00d585b3          	add	a1,a1,a3
800037cc:	01071793          	sll	a5,a4,0x10
800037d0:	00010f37          	lui	t5,0x10
800037d4:	01c7e7b3          	or	a5,a5,t3
800037d8:	406585b3          	sub	a1,a1,t1
800037dc:	ffff0313          	add	t1,t5,-1 # ffff <buflen.1+0xffbf>
800037e0:	0067f733          	and	a4,a5,t1
800037e4:	01065e13          	srl	t3,a2,0x10
800037e8:	0107d793          	srl	a5,a5,0x10
800037ec:	00667333          	and	t1,a2,t1
800037f0:	02670eb3          	mul	t4,a4,t1
800037f4:	02678333          	mul	t1,a5,t1
800037f8:	03c70733          	mul	a4,a4,t3
800037fc:	03c787b3          	mul	a5,a5,t3
80003800:	00670e33          	add	t3,a4,t1
80003804:	010ed713          	srl	a4,t4,0x10
80003808:	01c70733          	add	a4,a4,t3
8000380c:	00677463          	bgeu	a4,t1,80003814 <__umoddi3+0x380>
80003810:	01e787b3          	add	a5,a5,t5
80003814:	01075313          	srl	t1,a4,0x10
80003818:	00f307b3          	add	a5,t1,a5
8000381c:	00010337          	lui	t1,0x10
80003820:	fff30313          	add	t1,t1,-1 # ffff <buflen.1+0xffbf>
80003824:	00677733          	and	a4,a4,t1
80003828:	01071713          	sll	a4,a4,0x10
8000382c:	006efeb3          	and	t4,t4,t1
80003830:	01d70733          	add	a4,a4,t4
80003834:	00f5e663          	bltu	a1,a5,80003840 <__umoddi3+0x3ac>
80003838:	00f59e63          	bne	a1,a5,80003854 <__umoddi3+0x3c0>
8000383c:	00e57c63          	bgeu	a0,a4,80003854 <__umoddi3+0x3c0>
80003840:	40c70633          	sub	a2,a4,a2
80003844:	00c73333          	sltu	t1,a4,a2
80003848:	00d306b3          	add	a3,t1,a3
8000384c:	00060713          	mv	a4,a2
80003850:	40d787b3          	sub	a5,a5,a3
80003854:	40e50733          	sub	a4,a0,a4
80003858:	00e53533          	sltu	a0,a0,a4
8000385c:	40f585b3          	sub	a1,a1,a5
80003860:	40a585b3          	sub	a1,a1,a0
80003864:	011598b3          	sll	a7,a1,a7
80003868:	01075733          	srl	a4,a4,a6
8000386c:	00e8e533          	or	a0,a7,a4
80003870:	0105d5b3          	srl	a1,a1,a6
80003874:	00008067          	ret

Disassembly of section .text.startup:

80003878 <main>:
80003878:	b4010113          	add	sp,sp,-1216
8000387c:	00100513          	li	a0,1
80003880:	4a812c23          	sw	s0,1208(sp)
80003884:	4a112e23          	sw	ra,1212(sp)
80003888:	d55fe0ef          	jal	800025dc <setStats>
8000388c:	00010413          	mv	s0,sp
80003890:	00001697          	auipc	a3,0x1
80003894:	85468693          	add	a3,a3,-1964 # 800040e4 <input2_data>
80003898:	00000797          	auipc	a5,0x0
8000389c:	39c78793          	add	a5,a5,924 # 80003c34 <input1_data>
800038a0:	00068513          	mv	a0,a3
800038a4:	00040613          	mv	a2,s0
800038a8:	0007a703          	lw	a4,0(a5)
800038ac:	0006a583          	lw	a1,0(a3)
800038b0:	00478793          	add	a5,a5,4
800038b4:	00468693          	add	a3,a3,4
800038b8:	00b70733          	add	a4,a4,a1
800038bc:	00e62023          	sw	a4,0(a2)
800038c0:	00460613          	add	a2,a2,4
800038c4:	fea792e3          	bne	a5,a0,800038a8 <main+0x30>
800038c8:	00000513          	li	a0,0
800038cc:	d11fe0ef          	jal	800025dc <setStats>
800038d0:	00001797          	auipc	a5,0x1
800038d4:	cc478793          	add	a5,a5,-828 # 80004594 <verify_data>
800038d8:	00000513          	li	a0,0
800038dc:	12c00813          	li	a6,300
800038e0:	0180006f          	j	800038f8 <main+0x80>
800038e4:	00250513          	add	a0,a0,2
800038e8:	02c59463          	bne	a1,a2,80003910 <main+0x98>
800038ec:	00840413          	add	s0,s0,8
800038f0:	00878793          	add	a5,a5,8
800038f4:	03050663          	beq	a0,a6,80003920 <main+0xa8>
800038f8:	00042683          	lw	a3,0(s0)
800038fc:	0007a703          	lw	a4,0(a5)
80003900:	00442583          	lw	a1,4(s0)
80003904:	0047a603          	lw	a2,4(a5)
80003908:	fce68ee3          	beq	a3,a4,800038e4 <main+0x6c>
8000390c:	00150513          	add	a0,a0,1
80003910:	4bc12083          	lw	ra,1212(sp)
80003914:	4b812403          	lw	s0,1208(sp)
80003918:	4c010113          	add	sp,sp,1216
8000391c:	00008067          	ret
80003920:	00000513          	li	a0,0
80003924:	fedff06f          	j	80003910 <main+0x98>
80003928:	ff010113          	add	sp,sp,-16
8000392c:	00000517          	auipc	a0,0x0
80003930:	03c50513          	add	a0,a0,60 # 80003968 <main+0xf0>
80003934:	00112623          	sw	ra,12(sp)
80003938:	d6dfe0ef          	jal	800026a4 <printstr>
8000393c:	00c12083          	lw	ra,12(sp)
80003940:	fff00513          	li	a0,-1
80003944:	01010113          	add	sp,sp,16
80003948:	00008067          	ret

Disassembly of section .data:

80003c34 <input1_data>:
80003c34:	0029                	.2byte	0x29
80003c36:	0000                	.2byte	0x0
80003c38:	0341                	.2byte	0x341
80003c3a:	0000                	.2byte	0x0
80003c3c:	0234                	.2byte	0x234
80003c3e:	0000                	.2byte	0x0
80003c40:	000000bb          	.4byte	0xbb
80003c44:	02ed                	.2byte	0x2ed
80003c46:	0000                	.2byte	0x0
80003c48:	015e                	.2byte	0x15e
80003c4a:	0000                	.2byte	0x0
80003c4c:	0084                	.2byte	0x84
80003c4e:	0000                	.2byte	0x0
80003c50:	03b5                	.2byte	0x3b5
80003c52:	0000                	.2byte	0x0
80003c54:	0248                	.2byte	0x248
80003c56:	0000                	.2byte	0x0
80003c58:	0325                	.2byte	0x325
80003c5a:	0000                	.2byte	0x0
80003c5c:	026d                	.2byte	0x26d
80003c5e:	0000                	.2byte	0x0
80003c60:	0006                	.2byte	0x6
80003c62:	0000                	.2byte	0x0
80003c64:	000003a3          	sb	zero,7(zero) # 7 <buf.2+0x7>
80003c68:	037a                	.2byte	0x37a
80003c6a:	0000                	.2byte	0x0
80003c6c:	0188                	.2byte	0x188
80003c6e:	0000                	.2byte	0x0
80003c70:	02b6                	.2byte	0x2b6
80003c72:	0000                	.2byte	0x0
80003c74:	03c1                	.2byte	0x3c1
80003c76:	0000                	.2byte	0x0
80003c78:	006e                	.2byte	0x6e
80003c7a:	0000                	.2byte	0x0
80003c7c:	0074                	.2byte	0x74
80003c7e:	0000                	.2byte	0x0
80003c80:	0128                	.2byte	0x128
80003c82:	0000                	.2byte	0x0
80003c84:	01aa                	.2byte	0x1aa
80003c86:	0000                	.2byte	0x0
80003c88:	013a                	.2byte	0x13a
80003c8a:	0000                	.2byte	0x0
80003c8c:	00000293          	li	t0,0
80003c90:	0306                	.2byte	0x306
80003c92:	0000                	.2byte	0x0
80003c94:	0000013f 000002a6 	.8byte	0x2a60000013f
80003c9c:	0000036b          	.4byte	0x36b
80003ca0:	0178                	.2byte	0x178
80003ca2:	0000                	.2byte	0x0
80003ca4:	01da                	.2byte	0x1da
80003ca6:	0000                	.2byte	0x0
80003ca8:	03aa                	.2byte	0x3aa
80003caa:	0000                	.2byte	0x0
80003cac:	0000021b          	.4byte	0x21b
80003cb0:	0239                	.2byte	0x239
80003cb2:	0000                	.2byte	0x0
80003cb4:	000000cb          	fnmsub.s	ft1,ft0,ft0,ft0,rne
80003cb8:	0118                	.2byte	0x118
80003cba:	0000                	.2byte	0x0
80003cbc:	000002f7          	.4byte	0x2f7
80003cc0:	025e                	.2byte	0x25e
80003cc2:	0000                	.2byte	0x0
80003cc4:	01ff 0000 0291 0000 	.byte	0xff, 0x01, 0x00, 0x00, 0x91, 0x02, 0x00, 0x00, 0xc3, 0x00
80003ccc:	00c3 
80003cce:	0000                	.2byte	0x0
80003cd0:	0051                	.2byte	0x51
80003cd2:	0000                	.2byte	0x0
80003cd4:	0000010b          	.4byte	0x10b
80003cd8:	00e5                	.2byte	0xe5
80003cda:	0000                	.2byte	0x0
80003cdc:	0151                	.2byte	0x151
80003cde:	0000                	.2byte	0x0
80003ce0:	03b0                	.2byte	0x3b0
80003ce2:	0000                	.2byte	0x0
80003ce4:	0386                	.2byte	0x386
80003ce6:	0000                	.2byte	0x0
80003ce8:	00f1                	.2byte	0xf1
80003cea:	0000                	.2byte	0x0
80003cec:	0391                	.2byte	0x391
80003cee:	0000                	.2byte	0x0
80003cf0:	033a                	.2byte	0x33a
80003cf2:	0000                	.2byte	0x0
80003cf4:	03a5                	.2byte	0x3a5
80003cf6:	0000                	.2byte	0x0
80003cf8:	03d9                	.2byte	0x3d9
80003cfa:	0000                	.2byte	0x0
80003cfc:	000000c3          	fmadd.s	ft1,ft0,ft0,ft0,rne
80003d00:	03c0                	.2byte	0x3c0
80003d02:	0000                	.2byte	0x0
80003d04:	0236                	.2byte	0x236
80003d06:	0000                	.2byte	0x0
80003d08:	015e                	.2byte	0x15e
80003d0a:	0000                	.2byte	0x0
80003d0c:	0289                	.2byte	0x289
80003d0e:	0000                	.2byte	0x0
80003d10:	0291                	.2byte	0x291
80003d12:	0000                	.2byte	0x0
80003d14:	00b5                	.2byte	0xb5
80003d16:	0000                	.2byte	0x0
80003d18:	0000006f          	j	80003d18 <input1_data+0xe4>
80003d1c:	0000035b          	.4byte	0x35b
80003d20:	0041                	.2byte	0x41
80003d22:	0000                	.2byte	0x0
80003d24:	0120                	.2byte	0x120
80003d26:	0000                	.2byte	0x0
80003d28:	015d                	.2byte	0x15d
80003d2a:	0000                	.2byte	0x0
80003d2c:	008d                	.2byte	0x8d
80003d2e:	0000                	.2byte	0x0
80003d30:	0389                	.2byte	0x389
80003d32:	0000                	.2byte	0x0
80003d34:	0376                	.2byte	0x376
80003d36:	0000                	.2byte	0x0
80003d38:	0108                	.2byte	0x108
80003d3a:	0000                	.2byte	0x0
80003d3c:	0240                	.2byte	0x240
80003d3e:	0000                	.2byte	0x0
80003d40:	000003d3          	fadd.s	ft7,ft0,ft0,rne
80003d44:	02f9                	.2byte	0x2f9
80003d46:	0000                	.2byte	0x0
80003d48:	00f1                	.2byte	0xf1
80003d4a:	0000                	.2byte	0x0
80003d4c:	01de                	.2byte	0x1de
80003d4e:	0000                	.2byte	0x0
80003d50:	000001f3          	.4byte	0x1f3
80003d54:	00000193          	li	gp,0
80003d58:	00de                	.2byte	0xde
80003d5a:	0000                	.2byte	0x0
80003d5c:	01bc                	.2byte	0x1bc
80003d5e:	0000                	.2byte	0x0
80003d60:	02d1                	.2byte	0x2d1
80003d62:	0000                	.2byte	0x0
80003d64:	02a4                	.2byte	0x2a4
80003d66:	0000                	.2byte	0x0
80003d68:	013d                	.2byte	0x13d
80003d6a:	0000                	.2byte	0x0
80003d6c:	00e0                	.2byte	0xe0
80003d6e:	0000                	.2byte	0x0
80003d70:	03a9                	.2byte	0x3a9
80003d72:	0000                	.2byte	0x0
80003d74:	0120                	.2byte	0x120
80003d76:	0000                	.2byte	0x0
80003d78:	00000077          	.4byte	0x77
80003d7c:	00000267          	jalr	tp,zero # 0 <buf.2>
80003d80:	025e                	.2byte	0x25e
80003d82:	0000                	.2byte	0x0
80003d84:	0185                	.2byte	0x185
80003d86:	0000                	.2byte	0x0
80003d88:	015f 0000 01c7      	.byte	0x5f, 0x01, 0x00, 0x00, 0xc7, 0x01
80003d8e:	0000                	.2byte	0x0
80003d90:	0116                	.2byte	0x116
80003d92:	0000                	.2byte	0x0
80003d94:	0000016f          	jal	sp,80003d94 <input1_data+0x160>
80003d98:	0166                	.2byte	0x166
80003d9a:	0000                	.2byte	0x0
80003d9c:	0248                	.2byte	0x248
80003d9e:	0000                	.2byte	0x0
80003da0:	003e                	.2byte	0x3e
80003da2:	0000                	.2byte	0x0
80003da4:	03d9                	.2byte	0x3d9
80003da6:	0000                	.2byte	0x0
80003da8:	00000193          	li	gp,0
80003dac:	015a                	.2byte	0x15a
80003dae:	0000                	.2byte	0x0
80003db0:	0205                	.2byte	0x205
80003db2:	0000                	.2byte	0x0
80003db4:	0000022f          	.4byte	0x22f
80003db8:	038c                	.2byte	0x38c
80003dba:	0000                	.2byte	0x0
80003dbc:	00000307          	.4byte	0x307
80003dc0:	00ff 0000 030a 0000 	.byte	0xff, 0x00, 0x00, 0x00, 0x0a, 0x03, 0x00, 0x00, 0x56, 0x02
80003dc8:	0256 
80003dca:	0000                	.2byte	0x0
80003dcc:	0000008f          	.4byte	0x8f
80003dd0:	0021                	.2byte	0x21
80003dd2:	0000                	.2byte	0x0
80003dd4:	007d                	.2byte	0x7d
80003dd6:	0000                	.2byte	0x0
80003dd8:	03ad                	.2byte	0x3ad
80003dda:	0000                	.2byte	0x0
80003ddc:	03a5                	.2byte	0x3a5
80003dde:	0000                	.2byte	0x0
80003de0:	031f 0000 0229      	.byte	0x1f, 0x03, 0x00, 0x00, 0x29, 0x02
80003de6:	0000                	.2byte	0x0
80003de8:	000001af          	.4byte	0x1af
80003dec:	0288                	.2byte	0x288
80003dee:	0000                	.2byte	0x0
80003df0:	03b8                	.2byte	0x3b8
80003df2:	0000                	.2byte	0x0
80003df4:	011f 0000 0013      	.byte	0x1f, 0x01, 0x00, 0x00, 0x13, 0x00
80003dfa:	0000                	.2byte	0x0
80003dfc:	0031                	.2byte	0x31
80003dfe:	0000                	.2byte	0x0
80003e00:	0056                	.2byte	0x56
80003e02:	0000                	.2byte	0x0
80003e04:	005f 0000 01b9      	.byte	0x5f, 0x00, 0x00, 0x00, 0xb9, 0x01
80003e0a:	0000                	.2byte	0x0
80003e0c:	0000024b          	fnmsub.s	ft4,ft0,ft0,ft0,rne
80003e10:	0266                	.2byte	0x266
80003e12:	0000                	.2byte	0x0
80003e14:	017e                	.2byte	0x17e
80003e16:	0000                	.2byte	0x0
80003e18:	0118                	.2byte	0x118
80003e1a:	0000                	.2byte	0x0
80003e1c:	0328                	.2byte	0x328
80003e1e:	0000                	.2byte	0x0
80003e20:	000003cb          	fnmsub.s	ft7,ft0,ft0,ft0,rne
80003e24:	00000333          	add	t1,zero,zero
80003e28:	0158                	.2byte	0x158
80003e2a:	0000                	.2byte	0x0
80003e2c:	01c2                	.2byte	0x1c2
80003e2e:	0000                	.2byte	0x0
80003e30:	0200                	.2byte	0x200
80003e32:	0000                	.2byte	0x0
80003e34:	03c5                	.2byte	0x3c5
80003e36:	0000                	.2byte	0x0
80003e38:	0000015b          	.4byte	0x15b
80003e3c:	0328                	.2byte	0x328
80003e3e:	0000                	.2byte	0x0
80003e40:	0372                	.2byte	0x372
80003e42:	0000                	.2byte	0x0
80003e44:	0219                	.2byte	0x219
80003e46:	0000                	.2byte	0x0
80003e48:	03b2                	.2byte	0x3b2
80003e4a:	0000                	.2byte	0x0
80003e4c:	02bd                	.2byte	0x2bd
80003e4e:	0000                	.2byte	0x0
80003e50:	0164                	.2byte	0x164
80003e52:	0000                	.2byte	0x0
80003e54:	00000237          	lui	tp,0x0
80003e58:	0000037b          	.4byte	0x37b
80003e5c:	0016                	.2byte	0x16
80003e5e:	0000                	.2byte	0x0
80003e60:	0238                	.2byte	0x238
80003e62:	0000                	.2byte	0x0
80003e64:	0299                	.2byte	0x299
80003e66:	0000                	.2byte	0x0
80003e68:	000001a7          	.4byte	0x1a7
80003e6c:	01b2                	.2byte	0x1b2
80003e6e:	0000                	.2byte	0x0
80003e70:	009e                	.2byte	0x9e
80003e72:	0000                	.2byte	0x0
80003e74:	0002                	.2byte	0x2
80003e76:	0000                	.2byte	0x0
80003e78:	0054                	.2byte	0x54
80003e7a:	0000                	.2byte	0x0
80003e7c:	000000f7          	.4byte	0xf7
80003e80:	0031                	.2byte	0x31
80003e82:	0000                	.2byte	0x0
80003e84:	000001b3          	add	gp,zero,zero
80003e88:	0318                	.2byte	0x318
80003e8a:	0000                	.2byte	0x0
80003e8c:	0365                	.2byte	0x365
80003e8e:	0000                	.2byte	0x0
80003e90:	01e6                	.2byte	0x1e6
80003e92:	0000                	.2byte	0x0
80003e94:	019e                	.2byte	0x19e
80003e96:	0000                	.2byte	0x0
80003e98:	0171                	.2byte	0x171
80003e9a:	0000                	.2byte	0x0
80003e9c:	0224                	.2byte	0x224
80003e9e:	0000                	.2byte	0x0
80003ea0:	0206                	.2byte	0x206
80003ea2:	0000                	.2byte	0x0
80003ea4:	0378                	.2byte	0x378
80003ea6:	0000                	.2byte	0x0
80003ea8:	02aa                	.2byte	0x2aa
80003eaa:	0000                	.2byte	0x0
80003eac:	011c                	.2byte	0x11c
80003eae:	0000                	.2byte	0x0
80003eb0:	0108                	.2byte	0x108
80003eb2:	0000                	.2byte	0x0
80003eb4:	000001f3          	.4byte	0x1f3
80003eb8:	0122                	.2byte	0x122
80003eba:	0000                	.2byte	0x0
80003ebc:	0381                	.2byte	0x381
80003ebe:	0000                	.2byte	0x0
80003ec0:	000000d7          	.4byte	0xd7
80003ec4:	000002db          	.4byte	0x2db
80003ec8:	02b0                	.2byte	0x2b0
80003eca:	0000                	.2byte	0x0
80003ecc:	000000fb          	.4byte	0xfb
80003ed0:	0312                	.2byte	0x312
80003ed2:	0000                	.2byte	0x0
80003ed4:	0000022b          	.4byte	0x22b
80003ed8:	012e                	.2byte	0x12e
80003eda:	0000                	.2byte	0x0
80003edc:	0210                	.2byte	0x210
80003ede:	0000                	.2byte	0x0
80003ee0:	0220                	.2byte	0x220
80003ee2:	0000                	.2byte	0x0
80003ee4:	0142                	.2byte	0x142
80003ee6:	0000                	.2byte	0x0
80003ee8:	000003b3          	add	t2,zero,zero
80003eec:	011f 0000 0338      	.byte	0x1f, 0x01, 0x00, 0x00, 0x38, 0x03
80003ef2:	0000                	.2byte	0x0
80003ef4:	0130                	.2byte	0x130
80003ef6:	0000                	.2byte	0x0
80003ef8:	0314                	.2byte	0x314
80003efa:	0000                	.2byte	0x0
80003efc:	02dd                	.2byte	0x2dd
80003efe:	0000                	.2byte	0x0
80003f00:	000003bf 0000016e 	.8byte	0x16e000003bf
80003f08:	02d2                	.2byte	0x2d2
80003f0a:	0000                	.2byte	0x0
80003f0c:	0126                	.2byte	0x126
80003f0e:	0000                	.2byte	0x0
80003f10:	000003cf          	fnmadd.s	ft7,ft0,ft0,ft0,rne
80003f14:	028d                	.2byte	0x28d
80003f16:	0000                	.2byte	0x0
80003f18:	02ec                	.2byte	0x2ec
80003f1a:	0000                	.2byte	0x0
80003f1c:	0000005b          	.4byte	0x5b
80003f20:	017a                	.2byte	0x17a
80003f22:	0000                	.2byte	0x0
80003f24:	0069                	.2byte	0x69
80003f26:	0000                	.2byte	0x0
80003f28:	0066                	.2byte	0x66
80003f2a:	0000                	.2byte	0x0
80003f2c:	017d                	.2byte	0x17d
80003f2e:	0000                	.2byte	0x0
80003f30:	0000028b          	.4byte	0x28b
80003f34:	0339                	.2byte	0x339
80003f36:	0000                	.2byte	0x0
80003f38:	0348                	.2byte	0x348
80003f3a:	0000                	.2byte	0x0
80003f3c:	0164                	.2byte	0x164
80003f3e:	0000                	.2byte	0x0
80003f40:	0094                	.2byte	0x94
80003f42:	0000                	.2byte	0x0
80003f44:	0036                	.2byte	0x36
80003f46:	0000                	.2byte	0x0
80003f48:	008c                	.2byte	0x8c
80003f4a:	0000                	.2byte	0x0
80003f4c:	000003bb          	.4byte	0x3bb
80003f50:	00000157          	.4byte	0x157
80003f54:	0215                	.2byte	0x215
80003f56:	0000                	.2byte	0x0
80003f58:	02f5                	.2byte	0x2f5
80003f5a:	0000                	.2byte	0x0
80003f5c:	0209                	.2byte	0x209
80003f5e:	0000                	.2byte	0x0
80003f60:	0345                	.2byte	0x345
80003f62:	0000                	.2byte	0x0
80003f64:	0250                	.2byte	0x250
80003f66:	0000                	.2byte	0x0
80003f68:	000d                	.2byte	0xd
80003f6a:	0000                	.2byte	0x0
80003f6c:	00ad                	.2byte	0xad
80003f6e:	0000                	.2byte	0x0
80003f70:	0000003f 00000079 	.8byte	0x790000003f
80003f78:	0085                	.2byte	0x85
80003f7a:	0000                	.2byte	0x0
80003f7c:	02f6                	.2byte	0x2f6
80003f7e:	0000                	.2byte	0x0
80003f80:	0174                	.2byte	0x174
80003f82:	0000                	.2byte	0x0
80003f84:	000003b7          	lui	t2,0x0
80003f88:	00000027          	.4byte	0x27
80003f8c:	0081                	.2byte	0x81
80003f8e:	0000                	.2byte	0x0
80003f90:	006e                	.2byte	0x6e
80003f92:	0000                	.2byte	0x0
80003f94:	0000034f          	fnmadd.s	ft6,ft0,ft0,ft0,rne
80003f98:	01b5                	.2byte	0x1b5
80003f9a:	0000                	.2byte	0x0
80003f9c:	00ff 0000 010d 0000 	.byte	0xff, 0x00, 0x00, 0x00, 0x0d, 0x01, 0x00, 0x00, 0x99, 0x01
80003fa4:	0199 
80003fa6:	0000                	.2byte	0x0
80003fa8:	0274                	.2byte	0x274
80003faa:	0000                	.2byte	0x0
80003fac:	0000018f          	.4byte	0x18f
80003fb0:	0225                	.2byte	0x225
80003fb2:	0000                	.2byte	0x0
80003fb4:	02f1                	.2byte	0x2f1
80003fb6:	0000                	.2byte	0x0
80003fb8:	0234                	.2byte	0x234
80003fba:	0000                	.2byte	0x0
80003fbc:	000000ab          	.4byte	0xab
80003fc0:	00000013          	nop
80003fc4:	000002d7          	.4byte	0x2d7
80003fc8:	01f5                	.2byte	0x1f5
80003fca:	0000                	.2byte	0x0
80003fcc:	0309                	.2byte	0x309
80003fce:	0000                	.2byte	0x0
80003fd0:	0000002b          	.4byte	0x2b
80003fd4:	02f1                	.2byte	0x2f1
80003fd6:	0000                	.2byte	0x0
80003fd8:	0051                	.2byte	0x51
80003fda:	0000                	.2byte	0x0
80003fdc:	00ca                	.2byte	0xca
80003fde:	0000                	.2byte	0x0
80003fe0:	0355                	.2byte	0x355
80003fe2:	0000                	.2byte	0x0
80003fe4:	0099                	.2byte	0x99
80003fe6:	0000                	.2byte	0x0
80003fe8:	02f8                	.2byte	0x2f8
80003fea:	0000                	.2byte	0x0
80003fec:	0165                	.2byte	0x165
80003fee:	0000                	.2byte	0x0
80003ff0:	000003af          	.4byte	0x3af
80003ff4:	039a                	.2byte	0x39a
80003ff6:	0000                	.2byte	0x0
80003ff8:	0148                	.2byte	0x148
80003ffa:	0000                	.2byte	0x0
80003ffc:	01f0                	.2byte	0x1f0
80003ffe:	0000                	.2byte	0x0
80004000:	01ba                	.2byte	0x1ba
80004002:	0000                	.2byte	0x0
80004004:	0204                	.2byte	0x204
80004006:	0000                	.2byte	0x0
80004008:	0281                	.2byte	0x281
8000400a:	0000                	.2byte	0x0
8000400c:	0114                	.2byte	0x114
8000400e:	0000                	.2byte	0x0
80004010:	0312                	.2byte	0x312
80004012:	0000                	.2byte	0x0
80004014:	0071                	.2byte	0x71
80004016:	0000                	.2byte	0x0
80004018:	034a                	.2byte	0x34a
8000401a:	0000                	.2byte	0x0
8000401c:	0000038b          	.4byte	0x38b
80004020:	00000113          	li	sp,0
80004024:	00ed                	.2byte	0xed
80004026:	0000                	.2byte	0x0
80004028:	0020                	.2byte	0x20
8000402a:	0000                	.2byte	0x0
8000402c:	0310                	.2byte	0x310
8000402e:	0000                	.2byte	0x0
80004030:	0235                	.2byte	0x235
80004032:	0000                	.2byte	0x0
80004034:	0165                	.2byte	0x165
80004036:	0000                	.2byte	0x0
80004038:	00000323          	sb	zero,6(zero) # 6 <buf.2+0x6>
8000403c:	00000333          	add	t1,zero,zero
80004040:	000002ef          	jal	t0,80004040 <input1_data+0x40c>
80004044:	0118                	.2byte	0x118
80004046:	0000                	.2byte	0x0
80004048:	0055                	.2byte	0x55
8000404a:	0000                	.2byte	0x0
8000404c:	01ca                	.2byte	0x1ca
8000404e:	0000                	.2byte	0x0
80004050:	01c6                	.2byte	0x1c6
80004052:	0000                	.2byte	0x0
80004054:	02c6                	.2byte	0x2c6
80004056:	0000                	.2byte	0x0
80004058:	000001cb          	fnmsub.s	ft3,ft0,ft0,ft0,rne
8000405c:	0029                	.2byte	0x29
8000405e:	0000                	.2byte	0x0
80004060:	00fd                	.2byte	0xfd
80004062:	0000                	.2byte	0x0
80004064:	0179                	.2byte	0x179
80004066:	0000                	.2byte	0x0
80004068:	01fc                	.2byte	0x1fc
8000406a:	0000                	.2byte	0x0
8000406c:	02bc                	.2byte	0x2bc
8000406e:	0000                	.2byte	0x0
80004070:	035c                	.2byte	0x35c
80004072:	0000                	.2byte	0x0
80004074:	01e0                	.2byte	0x1e0
80004076:	0000                	.2byte	0x0
80004078:	02e5                	.2byte	0x2e5
8000407a:	0000                	.2byte	0x0
8000407c:	000001f3          	.4byte	0x1f3
80004080:	02c5                	.2byte	0x2c5
80004082:	0000                	.2byte	0x0
80004084:	0031                	.2byte	0x31
80004086:	0000                	.2byte	0x0
80004088:	00000173          	.4byte	0x173
8000408c:	0369                	.2byte	0x369
8000408e:	0000                	.2byte	0x0
80004090:	03b1                	.2byte	0x3b1
80004092:	0000                	.2byte	0x0
80004094:	03e0                	.2byte	0x3e0
80004096:	0000                	.2byte	0x0
80004098:	020e                	.2byte	0x20e
8000409a:	0000                	.2byte	0x0
8000409c:	02d1                	.2byte	0x2d1
8000409e:	0000                	.2byte	0x0
800040a0:	000001b3          	add	gp,zero,zero
800040a4:	00e8                	.2byte	0xe8
800040a6:	0000                	.2byte	0x0
800040a8:	01f1                	.2byte	0x1f1
800040aa:	0000                	.2byte	0x0
800040ac:	02b9                	.2byte	0x2b9
800040ae:	0000                	.2byte	0x0
800040b0:	001e                	.2byte	0x1e
800040b2:	0000                	.2byte	0x0
800040b4:	015c                	.2byte	0x15c
800040b6:	0000                	.2byte	0x0
800040b8:	00fa                	.2byte	0xfa
800040ba:	0000                	.2byte	0x0
800040bc:	015e                	.2byte	0x15e
800040be:	0000                	.2byte	0x0
800040c0:	00fa                	.2byte	0xfa
800040c2:	0000                	.2byte	0x0
800040c4:	023d                	.2byte	0x23d
800040c6:	0000                	.2byte	0x0
800040c8:	0310                	.2byte	0x310
800040ca:	0000                	.2byte	0x0
800040cc:	02ed                	.2byte	0x2ed
800040ce:	0000                	.2byte	0x0
800040d0:	01f6                	.2byte	0x1f6
800040d2:	0000                	.2byte	0x0
800040d4:	00000337          	lui	t1,0x0
800040d8:	033a                	.2byte	0x33a
800040da:	0000                	.2byte	0x0
800040dc:	00aa                	.2byte	0xaa
800040de:	0000                	.2byte	0x0
800040e0:	00a0                	.2byte	0xa0
800040e2:	0000                	.2byte	0x0

800040e4 <input2_data>:
800040e4:	01c6                	.2byte	0x1c6
800040e6:	0000                	.2byte	0x0
800040e8:	0000014f          	fnmadd.s	ft2,ft0,ft0,ft0,rne
800040ec:	0001                	.2byte	0x1
800040ee:	0000                	.2byte	0x0
800040f0:	03dd                	.2byte	0x3dd
800040f2:	0000                	.2byte	0x0
800040f4:	016d                	.2byte	0x16d
800040f6:	0000                	.2byte	0x0
800040f8:	023c                	.2byte	0x23c
800040fa:	0000                	.2byte	0x0
800040fc:	0040                	.2byte	0x40
800040fe:	0000                	.2byte	0x0
80004100:	0099                	.2byte	0x99
80004102:	0000                	.2byte	0x0
80004104:	00d8                	.2byte	0xd8
80004106:	0000                	.2byte	0x0
80004108:	008c                	.2byte	0x8c
8000410a:	0000                	.2byte	0x0
8000410c:	00d2                	.2byte	0xd2
8000410e:	0000                	.2byte	0x0
80004110:	023c                	.2byte	0x23c
80004112:	0000                	.2byte	0x0
80004114:	00000153          	fadd.s	ft2,ft0,ft0,rne
80004118:	0251                	.2byte	0x251
8000411a:	0000                	.2byte	0x0
8000411c:	0382                	.2byte	0x382
8000411e:	0000                	.2byte	0x0
80004120:	00e4                	.2byte	0xe4
80004122:	0000                	.2byte	0x0
80004124:	000c                	.2byte	0xc
80004126:	0000                	.2byte	0x0
80004128:	00000373          	.4byte	0x373
8000412c:	02ee                	.2byte	0x2ee
8000412e:	0000                	.2byte	0x0
80004130:	0286                	.2byte	0x286
80004132:	0000                	.2byte	0x0
80004134:	01f4                	.2byte	0x1f4
80004136:	0000                	.2byte	0x0
80004138:	01b4                	.2byte	0x1b4
8000413a:	0000                	.2byte	0x0
8000413c:	02bd                	.2byte	0x2bd
8000413e:	0000                	.2byte	0x0
80004140:	032c                	.2byte	0x32c
80004142:	0000                	.2byte	0x0
80004144:	03d5                	.2byte	0x3d5
80004146:	0000                	.2byte	0x0
80004148:	0096                	.2byte	0x96
8000414a:	0000                	.2byte	0x0
8000414c:	02b8                	.2byte	0x2b8
8000414e:	0000                	.2byte	0x0
80004150:	0234                	.2byte	0x234
80004152:	0000                	.2byte	0x0
80004154:	0110                	.2byte	0x110
80004156:	0000                	.2byte	0x0
80004158:	0102                	.2byte	0x102
8000415a:	0000                	.2byte	0x0
8000415c:	00000287          	.4byte	0x287
80004160:	01fd                	.2byte	0x1fd
80004162:	0000                	.2byte	0x0
80004164:	0058                	.2byte	0x58
80004166:	0000                	.2byte	0x0
80004168:	000002bf 0000029d 	.8byte	0x29d000002bf
80004170:	00000177          	.4byte	0x177
80004174:	00000227          	.4byte	0x227
80004178:	03a8                	.2byte	0x3a8
8000417a:	0000                	.2byte	0x0
8000417c:	0250                	.2byte	0x250
8000417e:	0000                	.2byte	0x0
80004180:	0239                	.2byte	0x239
80004182:	0000                	.2byte	0x0
80004184:	03b8                	.2byte	0x3b8
80004186:	0000                	.2byte	0x0
80004188:	0320                	.2byte	0x320
8000418a:	0000                	.2byte	0x0
8000418c:	0248                	.2byte	0x248
8000418e:	0000                	.2byte	0x0
80004190:	00000283          	lb	t0,0(zero) # 0 <buf.2>
80004194:	0170                	.2byte	0x170
80004196:	0000                	.2byte	0x0
80004198:	01e9                	.2byte	0x1e9
8000419a:	0000                	.2byte	0x0
8000419c:	0148                	.2byte	0x148
8000419e:	0000                	.2byte	0x0
800041a0:	0139                	.2byte	0x139
800041a2:	0000                	.2byte	0x0
800041a4:	0250                	.2byte	0x250
800041a6:	0000                	.2byte	0x0
800041a8:	0184                	.2byte	0x184
800041aa:	0000                	.2byte	0x0
800041ac:	021f 0000 0289      	.byte	0x1f, 0x02, 0x00, 0x00, 0x89, 0x02
800041b2:	0000                	.2byte	0x0
800041b4:	000003d3          	fadd.s	ft7,ft0,ft0,rne
800041b8:	03e5                	.2byte	0x3e5
800041ba:	0000                	.2byte	0x0
800041bc:	032e                	.2byte	0x32e
800041be:	0000                	.2byte	0x0
800041c0:	0000004f          	fnmadd.s	ft0,ft0,ft0,ft0,rne
800041c4:	00d0                	.2byte	0xd0
800041c6:	0000                	.2byte	0x0
800041c8:	03e6                	.2byte	0x3e6
800041ca:	0000                	.2byte	0x0
800041cc:	0275                	.2byte	0x275
800041ce:	0000                	.2byte	0x0
800041d0:	0000034f          	fnmadd.s	ft6,ft0,ft0,ft0,rne
800041d4:	02c0                	.2byte	0x2c0
800041d6:	0000                	.2byte	0x0
800041d8:	03e5                	.2byte	0x3e5
800041da:	0000                	.2byte	0x0
800041dc:	00fd                	.2byte	0xfd
800041de:	0000                	.2byte	0x0
800041e0:	000002cb          	fnmsub.s	ft5,ft0,ft0,ft0,rne
800041e4:	01ae                	.2byte	0x1ae
800041e6:	0000                	.2byte	0x0
800041e8:	019f 0000 021a      	.byte	0x9f, 0x01, 0x00, 0x00, 0x1a, 0x02
800041ee:	0000                	.2byte	0x0
800041f0:	02bc                	.2byte	0x2bc
800041f2:	0000                	.2byte	0x0
800041f4:	0004                	.2byte	0x4
800041f6:	0000                	.2byte	0x0
800041f8:	01ee                	.2byte	0x1ee
800041fa:	0000                	.2byte	0x0
800041fc:	0064                	.2byte	0x64
800041fe:	0000                	.2byte	0x0
80004200:	0360                	.2byte	0x360
80004202:	0000                	.2byte	0x0
80004204:	02b5                	.2byte	0x2b5
80004206:	0000                	.2byte	0x0
80004208:	01a0                	.2byte	0x1a0
8000420a:	0000                	.2byte	0x0
8000420c:	0128                	.2byte	0x128
8000420e:	0000                	.2byte	0x0
80004210:	011d                	.2byte	0x11d
80004212:	0000                	.2byte	0x0
80004214:	026c                	.2byte	0x26c
80004216:	0000                	.2byte	0x0
80004218:	004e                	.2byte	0x4e
8000421a:	0000                	.2byte	0x0
8000421c:	015f 0000 021c      	.byte	0x5f, 0x01, 0x00, 0x00, 0x1c, 0x02
80004222:	0000                	.2byte	0x0
80004224:	0286                	.2byte	0x286
80004226:	0000                	.2byte	0x0
80004228:	00a9                	.2byte	0xa9
8000422a:	0000                	.2byte	0x0
8000422c:	0000020f          	.4byte	0x20f
80004230:	0121                	.2byte	0x121
80004232:	0000                	.2byte	0x0
80004234:	031c                	.2byte	0x31c
80004236:	0000                	.2byte	0x0
80004238:	0321                	.2byte	0x321
8000423a:	0000                	.2byte	0x0
8000423c:	02d0                	.2byte	0x2d0
8000423e:	0000                	.2byte	0x0
80004240:	02f6                	.2byte	0x2f6
80004242:	0000                	.2byte	0x0
80004244:	02e9                	.2byte	0x2e9
80004246:	0000                	.2byte	0x0
80004248:	005c                	.2byte	0x5c
8000424a:	0000                	.2byte	0x0
8000424c:	03dd                	.2byte	0x3dd
8000424e:	0000                	.2byte	0x0
80004250:	0000010f          	.4byte	0x10f
80004254:	0355                	.2byte	0x355
80004256:	0000                	.2byte	0x0
80004258:	0314                	.2byte	0x314
8000425a:	0000                	.2byte	0x0
8000425c:	00000213          	li	tp,0
80004260:	00de                	.2byte	0xde
80004262:	0000                	.2byte	0x0
80004264:	01cd                	.2byte	0x1cd
80004266:	0000                	.2byte	0x0
80004268:	00f1                	.2byte	0xf1
8000426a:	0000                	.2byte	0x0
8000426c:	0166                	.2byte	0x166
8000426e:	0000                	.2byte	0x0
80004270:	014c                	.2byte	0x14c
80004272:	0000                	.2byte	0x0
80004274:	02ac                	.2byte	0x2ac
80004276:	0000                	.2byte	0x0
80004278:	02e4                	.2byte	0x2e4
8000427a:	0000                	.2byte	0x0
8000427c:	01be                	.2byte	0x1be
8000427e:	0000                	.2byte	0x0
80004280:	00000137          	lui	sp,0x0
80004284:	000002e7          	jalr	t0,zero # 0 <buf.2>
80004288:	022d                	.2byte	0x22d
8000428a:	0000                	.2byte	0x0
8000428c:	01df 0000 022d      	.byte	0xdf, 0x01, 0x00, 0x00, 0x2d, 0x02
80004292:	0000                	.2byte	0x0
80004294:	039d                	.2byte	0x39d
80004296:	0000                	.2byte	0x0
80004298:	031c                	.2byte	0x31c
8000429a:	0000                	.2byte	0x0
8000429c:	0165                	.2byte	0x165
8000429e:	0000                	.2byte	0x0
800042a0:	0000037b          	.4byte	0x37b
800042a4:	029a                	.2byte	0x29a
800042a6:	0000                	.2byte	0x0
800042a8:	0202                	.2byte	0x202
800042aa:	0000                	.2byte	0x0
800042ac:	022d                	.2byte	0x22d
800042ae:	0000                	.2byte	0x0
800042b0:	0366                	.2byte	0x366
800042b2:	0000                	.2byte	0x0
800042b4:	0355                	.2byte	0x355
800042b6:	0000                	.2byte	0x0
800042b8:	01b8                	.2byte	0x1b8
800042ba:	0000                	.2byte	0x0
800042bc:	003d                	.2byte	0x3d
800042be:	0000                	.2byte	0x0
800042c0:	02a6                	.2byte	0x2a6
800042c2:	0000                	.2byte	0x0
800042c4:	018c                	.2byte	0x18c
800042c6:	0000                	.2byte	0x0
800042c8:	0009                	.2byte	0x9
800042ca:	0000                	.2byte	0x0
800042cc:	0011                	.2byte	0x11
800042ce:	0000                	.2byte	0x0
800042d0:	00aa                	.2byte	0xaa
800042d2:	0000                	.2byte	0x0
800042d4:	00000123          	sb	zero,2(zero) # 2 <buf.2+0x2>
800042d8:	017c                	.2byte	0x17c
800042da:	0000                	.2byte	0x0
800042dc:	0218                	.2byte	0x218
800042de:	0000                	.2byte	0x0
800042e0:	00b9                	.2byte	0xb9
800042e2:	0000                	.2byte	0x0
800042e4:	0395                	.2byte	0x395
800042e6:	0000                	.2byte	0x0
800042e8:	0000021b          	.4byte	0x21b
800042ec:	000003d7          	.4byte	0x3d7
800042f0:	00000377          	.4byte	0x377
800042f4:	0036                	.2byte	0x36
800042f6:	0000                	.2byte	0x0
800042f8:	0264                	.2byte	0x264
800042fa:	0000                	.2byte	0x0
800042fc:	000003b7          	lui	t2,0x0
80004300:	01df 0000 0097      	.byte	0xdf, 0x01, 0x00, 0x00, 0x97, 0x00
80004306:	0000                	.2byte	0x0
80004308:	00000007          	.4byte	0x7
8000430c:	0281                	.2byte	0x281
8000430e:	0000                	.2byte	0x0
80004310:	0000014f          	fnmadd.s	ft2,ft0,ft0,ft0,rne
80004314:	02da                	.2byte	0x2da
80004316:	0000                	.2byte	0x0
80004318:	005f 0000 02d8      	.byte	0x5f, 0x00, 0x00, 0x00, 0xd8, 0x02
8000431e:	0000                	.2byte	0x0
80004320:	0118                	.2byte	0x118
80004322:	0000                	.2byte	0x0
80004324:	0000018b          	.4byte	0x18b
80004328:	02b0                	.2byte	0x2b0
8000432a:	0000                	.2byte	0x0
8000432c:	0000038f          	.4byte	0x38f
80004330:	01dc                	.2byte	0x1dc
80004332:	0000                	.2byte	0x0
80004334:	0000032f          	.4byte	0x32f
80004338:	02d9                	.2byte	0x2d9
8000433a:	0000                	.2byte	0x0
8000433c:	0109                	.2byte	0x109
8000433e:	0000                	.2byte	0x0
80004340:	007f 0000 00ec 0000 	.byte	0x7f, 0x00, 0x00, 0x00, 0xec, 0x00, 0x00, 0x00, 0xd6, 0x00
80004348:	00d6 
8000434a:	0000                	.2byte	0x0
8000434c:	00b4                	.2byte	0xb4
8000434e:	0000                	.2byte	0x0
80004350:	0006                	.2byte	0x6
80004352:	0000                	.2byte	0x0
80004354:	000001f7          	.4byte	0x1f7
80004358:	0254                	.2byte	0x254
8000435a:	0000                	.2byte	0x0
8000435c:	00ad                	.2byte	0xad
8000435e:	0000                	.2byte	0x0
80004360:	00000283          	lb	t0,0(zero) # 0 <buf.2>
80004364:	015a                	.2byte	0x15a
80004366:	0000                	.2byte	0x0
80004368:	00000257          	.4byte	0x257
8000436c:	0044                	.2byte	0x44
8000436e:	0000                	.2byte	0x0
80004370:	0351                	.2byte	0x351
80004372:	0000                	.2byte	0x0
80004374:	0292                	.2byte	0x292
80004376:	0000                	.2byte	0x0
80004378:	0000026b          	.4byte	0x26b
8000437c:	0079                	.2byte	0x79
8000437e:	0000                	.2byte	0x0
80004380:	00000083          	lb	ra,0(zero) # 0 <buf.2>
80004384:	033c                	.2byte	0x33c
80004386:	0000                	.2byte	0x0
80004388:	0000029b          	.4byte	0x29b
8000438c:	01b1                	.2byte	0x1b1
8000438e:	0000                	.2byte	0x0
80004390:	000001e7          	jalr	gp,zero # 0 <buf.2>
80004394:	02f1                	.2byte	0x2f1
80004396:	0000                	.2byte	0x0
80004398:	007d                	.2byte	0x7d
8000439a:	0000                	.2byte	0x0
8000439c:	0272                	.2byte	0x272
8000439e:	0000                	.2byte	0x0
800043a0:	000e                	.2byte	0xe
800043a2:	0000                	.2byte	0x0
800043a4:	000a                	.2byte	0xa
800043a6:	0000                	.2byte	0x0
800043a8:	00000193          	li	gp,0
800043ac:	006a                	.2byte	0x6a
800043ae:	0000                	.2byte	0x0
800043b0:	000002bf 00000332 	.8byte	0x332000002bf
800043b8:	03c4                	.2byte	0x3c4
800043ba:	0000                	.2byte	0x0
800043bc:	0196                	.2byte	0x196
800043be:	0000                	.2byte	0x0
800043c0:	036a                	.2byte	0x36a
800043c2:	0000                	.2byte	0x0
800043c4:	0358                	.2byte	0x358
800043c6:	0000                	.2byte	0x0
800043c8:	0056                	.2byte	0x56
800043ca:	0000                	.2byte	0x0
800043cc:	003c                	.2byte	0x3c
800043ce:	0000                	.2byte	0x0
800043d0:	0294                	.2byte	0x294
800043d2:	0000                	.2byte	0x0
800043d4:	0000029b          	.4byte	0x29b
800043d8:	0099                	.2byte	0x99
800043da:	0000                	.2byte	0x0
800043dc:	0079                	.2byte	0x79
800043de:	0000                	.2byte	0x0
800043e0:	0062                	.2byte	0x62
800043e2:	0000                	.2byte	0x0
800043e4:	019c                	.2byte	0x19c
800043e6:	0000                	.2byte	0x0
800043e8:	00ec                	.2byte	0xec
800043ea:	0000                	.2byte	0x0
800043ec:	000c                	.2byte	0xc
800043ee:	0000                	.2byte	0x0
800043f0:	000001a7          	.4byte	0x1a7
800043f4:	03c5                	.2byte	0x3c5
800043f6:	0000                	.2byte	0x0
800043f8:	00d8                	.2byte	0xd8
800043fa:	0000                	.2byte	0x0
800043fc:	026d                	.2byte	0x26d
800043fe:	0000                	.2byte	0x0
80004400:	0169                	.2byte	0x169
80004402:	0000                	.2byte	0x0
80004404:	0399                	.2byte	0x399
80004406:	0000                	.2byte	0x0
80004408:	000002cb          	fnmsub.s	ft5,ft0,ft0,ft0,rne
8000440c:	00000287          	.4byte	0x287
80004410:	0000012b          	.4byte	0x12b
80004414:	0376                	.2byte	0x376
80004416:	0000                	.2byte	0x0
80004418:	02aa                	.2byte	0x2aa
8000441a:	0000                	.2byte	0x0
8000441c:	0024                	.2byte	0x24
8000441e:	0000                	.2byte	0x0
80004420:	01ed                	.2byte	0x1ed
80004422:	0000                	.2byte	0x0
80004424:	00000227          	.4byte	0x227
80004428:	0219                	.2byte	0x219
8000442a:	0000                	.2byte	0x0
8000442c:	03c9                	.2byte	0x3c9
8000442e:	0000                	.2byte	0x0
80004430:	00000283          	lb	t0,0(zero) # 0 <buf.2>
80004434:	01b2                	.2byte	0x1b2
80004436:	0000                	.2byte	0x0
80004438:	019f 0000 012f      	.byte	0x9f, 0x01, 0x00, 0x00, 0x2f, 0x01
8000443e:	0000                	.2byte	0x0
80004440:	01b6                	.2byte	0x1b6
80004442:	0000                	.2byte	0x0
80004444:	035c                	.2byte	0x35c
80004446:	0000                	.2byte	0x0
80004448:	000000cb          	fnmsub.s	ft1,ft0,ft0,ft0,rne
8000444c:	01de                	.2byte	0x1de
8000444e:	0000                	.2byte	0x0
80004450:	03dc                	.2byte	0x3dc
80004452:	0000                	.2byte	0x0
80004454:	000002a3          	sb	zero,5(zero) # 5 <buf.2+0x5>
80004458:	000002cf          	fnmadd.s	ft5,ft0,ft0,ft0,rne
8000445c:	03de                	.2byte	0x3de
8000445e:	0000                	.2byte	0x0
80004460:	0152                	.2byte	0x152
80004462:	0000                	.2byte	0x0
80004464:	01c2                	.2byte	0x1c2
80004466:	0000                	.2byte	0x0
80004468:	0279                	.2byte	0x279
8000446a:	0000                	.2byte	0x0
8000446c:	0000009b          	.4byte	0x9b
80004470:	0286                	.2byte	0x286
80004472:	0000                	.2byte	0x0
80004474:	01c4                	.2byte	0x1c4
80004476:	0000                	.2byte	0x0
80004478:	000001ab          	.4byte	0x1ab
8000447c:	01fd                	.2byte	0x1fd
8000447e:	0000                	.2byte	0x0
80004480:	03dc                	.2byte	0x3dc
80004482:	0000                	.2byte	0x0
80004484:	01aa                	.2byte	0x1aa
80004486:	0000                	.2byte	0x0
80004488:	000c                	.2byte	0xc
8000448a:	0000                	.2byte	0x0
8000448c:	000001e3          	beqz	zero,80004c8e <_tbss_end+0x1ca>
80004490:	008e                	.2byte	0x8e
80004492:	0000                	.2byte	0x0
80004494:	00000153          	fadd.s	ft2,ft0,ft0,rne
80004498:	0186                	.2byte	0x186
8000449a:	0000                	.2byte	0x0
8000449c:	0032                	.2byte	0x32
8000449e:	0000                	.2byte	0x0
800044a0:	000000ab          	.4byte	0xab
800044a4:	0259                	.2byte	0x259
800044a6:	0000                	.2byte	0x0
800044a8:	0069                	.2byte	0x69
800044aa:	0000                	.2byte	0x0
800044ac:	03c8                	.2byte	0x3c8
800044ae:	0000                	.2byte	0x0
800044b0:	0079                	.2byte	0x79
800044b2:	0000                	.2byte	0x0
800044b4:	0000036f          	jal	t1,800044b4 <input2_data+0x3d0>
800044b8:	0051                	.2byte	0x51
800044ba:	0000                	.2byte	0x0
800044bc:	0366                	.2byte	0x366
800044be:	0000                	.2byte	0x0
800044c0:	0258                	.2byte	0x258
800044c2:	0000                	.2byte	0x0
800044c4:	0000025b          	.4byte	0x25b
800044c8:	00000367          	jalr	t1,zero # 0 <buf.2>
800044cc:	00000377          	.4byte	0x377
800044d0:	0262                	.2byte	0x262
800044d2:	0000                	.2byte	0x0
800044d4:	0194                	.2byte	0x194
800044d6:	0000                	.2byte	0x0
800044d8:	00ea                	.2byte	0xea
800044da:	0000                	.2byte	0x0
800044dc:	02e9                	.2byte	0x2e9
800044de:	0000                	.2byte	0x0
800044e0:	020e                	.2byte	0x20e
800044e2:	0000                	.2byte	0x0
800044e4:	00000113          	li	sp,0
800044e8:	01b9                	.2byte	0x1b9
800044ea:	0000                	.2byte	0x0
800044ec:	00e2                	.2byte	0xe2
800044ee:	0000                	.2byte	0x0
800044f0:	02f0                	.2byte	0x2f0
800044f2:	0000                	.2byte	0x0
800044f4:	000003af          	.4byte	0x3af
800044f8:	02d6                	.2byte	0x2d6
800044fa:	0000                	.2byte	0x0
800044fc:	02c5                	.2byte	0x2c5
800044fe:	0000                	.2byte	0x0
80004500:	00c9                	.2byte	0xc9
80004502:	0000                	.2byte	0x0
80004504:	0036                	.2byte	0x36
80004506:	0000                	.2byte	0x0
80004508:	02f6                	.2byte	0x2f6
8000450a:	0000                	.2byte	0x0
8000450c:	0035                	.2byte	0x35
8000450e:	0000                	.2byte	0x0
80004510:	018d                	.2byte	0x18d
80004512:	0000                	.2byte	0x0
80004514:	0029                	.2byte	0x29
80004516:	0000                	.2byte	0x0
80004518:	008d                	.2byte	0x8d
8000451a:	0000                	.2byte	0x0
8000451c:	01a0                	.2byte	0x1a0
8000451e:	0000                	.2byte	0x0
80004520:	000002eb          	.4byte	0x2eb
80004524:	000000db          	.4byte	0xdb
80004528:	01de                	.2byte	0x1de
8000452a:	0000                	.2byte	0x0
8000452c:	0302                	.2byte	0x302
8000452e:	0000                	.2byte	0x0
80004530:	00b4                	.2byte	0xb4
80004532:	0000                	.2byte	0x0
80004534:	01e2                	.2byte	0x1e2
80004536:	0000                	.2byte	0x0
80004538:	000002b3          	add	t0,zero,zero
8000453c:	02d5                	.2byte	0x2d5
8000453e:	0000                	.2byte	0x0
80004540:	00ad                	.2byte	0xad
80004542:	0000                	.2byte	0x0
80004544:	00ba                	.2byte	0xba
80004546:	0000                	.2byte	0x0
80004548:	0392                	.2byte	0x392
8000454a:	0000                	.2byte	0x0
8000454c:	0001                	.2byte	0x1
8000454e:	0000                	.2byte	0x0
80004550:	000003c3          	fmadd.s	ft7,ft0,ft0,ft0,rne
80004554:	000000f7          	.4byte	0xf7
80004558:	01d0                	.2byte	0x1d0
8000455a:	0000                	.2byte	0x0
8000455c:	016a                	.2byte	0x16a
8000455e:	0000                	.2byte	0x0
80004560:	0209                	.2byte	0x209
80004562:	0000                	.2byte	0x0
80004564:	00e9                	.2byte	0xe9
80004566:	0000                	.2byte	0x0
80004568:	0078                	.2byte	0x78
8000456a:	0000                	.2byte	0x0
8000456c:	0028                	.2byte	0x28
8000456e:	0000                	.2byte	0x0
80004570:	0000030b          	.4byte	0x30b
80004574:	000000c3          	fmadd.s	ft1,ft0,ft0,ft0,rne
80004578:	00a1                	.2byte	0xa1
8000457a:	0000                	.2byte	0x0
8000457c:	000002e7          	jalr	t0,zero # 0 <buf.2>
80004580:	000001b7          	lui	gp,0x0
80004584:	00000163          	beqz	zero,80004586 <input2_data+0x4a2>
80004588:	00000193          	li	gp,0
8000458c:	008d                	.2byte	0x8d
8000458e:	0000                	.2byte	0x0
80004590:	0279                	.2byte	0x279
80004592:	0000                	.2byte	0x0

80004594 <verify_data>:
80004594:	000001ef          	jal	gp,80004594 <verify_data>
80004598:	0490                	.2byte	0x490
8000459a:	0000                	.2byte	0x0
8000459c:	0235                	.2byte	0x235
8000459e:	0000                	.2byte	0x0
800045a0:	0498                	.2byte	0x498
800045a2:	0000                	.2byte	0x0
800045a4:	045a                	.2byte	0x45a
800045a6:	0000                	.2byte	0x0
800045a8:	039a                	.2byte	0x39a
800045aa:	0000                	.2byte	0x0
800045ac:	00c4                	.2byte	0xc4
800045ae:	0000                	.2byte	0x0
800045b0:	044e                	.2byte	0x44e
800045b2:	0000                	.2byte	0x0
800045b4:	0320                	.2byte	0x320
800045b6:	0000                	.2byte	0x0
800045b8:	03b1                	.2byte	0x3b1
800045ba:	0000                	.2byte	0x0
800045bc:	0000033f 00000242 	.8byte	0x2420000033f
800045c4:	04f6                	.2byte	0x4f6
800045c6:	0000                	.2byte	0x0
800045c8:	000005cb          	fnmsub.s	fa1,ft0,ft0,ft0,rne
800045cc:	050a                	.2byte	0x50a
800045ce:	0000                	.2byte	0x0
800045d0:	039a                	.2byte	0x39a
800045d2:	0000                	.2byte	0x0
800045d4:	03cd                	.2byte	0x3cd
800045d6:	0000                	.2byte	0x0
800045d8:	03e1                	.2byte	0x3e1
800045da:	0000                	.2byte	0x0
800045dc:	0362                	.2byte	0x362
800045de:	0000                	.2byte	0x0
800045e0:	03ae                	.2byte	0x3ae
800045e2:	0000                	.2byte	0x0
800045e4:	039e                	.2byte	0x39e
800045e6:	0000                	.2byte	0x0
800045e8:	02ee                	.2byte	0x2ee
800045ea:	0000                	.2byte	0x0
800045ec:	0550                	.2byte	0x550
800045ee:	0000                	.2byte	0x0
800045f0:	0632                	.2byte	0x632
800045f2:	0000                	.2byte	0x0
800045f4:	0514                	.2byte	0x514
800045f6:	0000                	.2byte	0x0
800045f8:	033c                	.2byte	0x33c
800045fa:	0000                	.2byte	0x0
800045fc:	00000623          	sb	zero,12(zero) # c <buf.2+0xc>
80004600:	03ac                	.2byte	0x3ac
80004602:	0000                	.2byte	0x0
80004604:	02ea                	.2byte	0x2ea
80004606:	0000                	.2byte	0x0
80004608:	04ac                	.2byte	0x4ac
8000460a:	0000                	.2byte	0x0
8000460c:	04a2                	.2byte	0x4a2
8000460e:	0000                	.2byte	0x0
80004610:	0436                	.2byte	0x436
80004612:	0000                	.2byte	0x0
80004614:	00000123          	sb	zero,2(zero) # 2 <buf.2+0x2>
80004618:	000003d7          	.4byte	0x3d7
8000461c:	0594                	.2byte	0x594
8000461e:	0000                	.2byte	0x0
80004620:	03d5                	.2byte	0x3d5
80004622:	0000                	.2byte	0x0
80004624:	0426                	.2byte	0x426
80004626:	0000                	.2byte	0x0
80004628:	0639                	.2byte	0x639
8000462a:	0000                	.2byte	0x0
8000462c:	00000313          	li	t1,0
80004630:	028a                	.2byte	0x28a
80004632:	0000                	.2byte	0x0
80004634:	000004c3          	fmadd.s	fs1,ft0,ft0,ft0,rne
80004638:	0405                	.2byte	0x405
8000463a:	0000                	.2byte	0x0
8000463c:	0399                	.2byte	0x399
8000463e:	0000                	.2byte	0x0
80004640:	00000633          	add	a2,zero,zero
80004644:	04f6                	.2byte	0x4f6
80004646:	0000                	.2byte	0x0
80004648:	02da                	.2byte	0x2da
8000464a:	0000                	.2byte	0x0
8000464c:	04d9                	.2byte	0x4d9
8000464e:	0000                	.2byte	0x0
80004650:	00000473          	.4byte	0x473
80004654:	05f5                	.2byte	0x5f5
80004656:	0000                	.2byte	0x0
80004658:	055d                	.2byte	0x55d
8000465a:	0000                	.2byte	0x0
8000465c:	02e2                	.2byte	0x2e2
8000465e:	0000                	.2byte	0x0
80004660:	0649                	.2byte	0x649
80004662:	0000                	.2byte	0x0
80004664:	0609                	.2byte	0x609
80004666:	0000                	.2byte	0x0
80004668:	00000543          	fmadd.s	fa0,ft0,ft0,ft0,rne
8000466c:	000005b7          	lui	a1,0x0
80004670:	02e0                	.2byte	0x2e0
80004672:	0000                	.2byte	0x0
80004674:	0185                	.2byte	0x185
80004676:	0000                	.2byte	0x0
80004678:	0455                	.2byte	0x455
8000467a:	0000                	.2byte	0x0
8000467c:	05d0                	.2byte	0x5d0
8000467e:	0000                	.2byte	0x0
80004680:	0390                	.2byte	0x390
80004682:	0000                	.2byte	0x0
80004684:	03e0                	.2byte	0x3e0
80004686:	0000                	.2byte	0x0
80004688:	0542                	.2byte	0x542
8000468a:	0000                	.2byte	0x0
8000468c:	018a                	.2byte	0x18a
8000468e:	0000                	.2byte	0x0
80004690:	0654                	.2byte	0x654
80004692:	0000                	.2byte	0x0
80004694:	0524                	.2byte	0x524
80004696:	0000                	.2byte	0x0
80004698:	000002a7          	.4byte	0x2a7
8000469c:	045a                	.2byte	0x45a
8000469e:	0000                	.2byte	0x0
800046a0:	0000068f          	.4byte	0x68f
800046a4:	02fd                	.2byte	0x2fd
800046a6:	0000                	.2byte	0x0
800046a8:	02df 0000 0242      	.byte	0xdf, 0x02, 0x00, 0x00, 0x42, 0x02
800046ae:	0000                	.2byte	0x0
800046b0:	00000553          	fadd.s	fa0,ft0,ft0,rne
800046b4:	0448                	.2byte	0x448
800046b6:	0000                	.2byte	0x0
800046b8:	027e                	.2byte	0x27e
800046ba:	0000                	.2byte	0x0
800046bc:	02e4                	.2byte	0x2e4
800046be:	0000                	.2byte	0x0
800046c0:	03ee                	.2byte	0x3ee
800046c2:	0000                	.2byte	0x0
800046c4:	0510                	.2byte	0x510
800046c6:	0000                	.2byte	0x0
800046c8:	0000018b          	.4byte	0x18b
800046cc:	0000023f 000005c5 	.8byte	0x5c50000023f
800046d4:	03a6                	.2byte	0x3a6
800046d6:	0000                	.2byte	0x0
800046d8:	0120                	.2byte	0x120
800046da:	0000                	.2byte	0x0
800046dc:	0476                	.2byte	0x476
800046de:	0000                	.2byte	0x0
800046e0:	037f 0000 04a1 0000 	.byte	0x7f, 0x03, 0x00, 0x00, 0xa1, 0x04, 0x00, 0x00, 0x80, 0x04
800046e8:	0480 
800046ea:	0000                	.2byte	0x0
800046ec:	00000497          	auipc	s1,0x0
800046f0:	040c                	.2byte	0x40c
800046f2:	0000                	.2byte	0x0
800046f4:	0458                	.2byte	0x458
800046f6:	0000                	.2byte	0x0
800046f8:	01c2                	.2byte	0x1c2
800046fa:	0000                	.2byte	0x0
800046fc:	0625                	.2byte	0x625
800046fe:	0000                	.2byte	0x0
80004700:	014d                	.2byte	0x14d
80004702:	0000                	.2byte	0x0
80004704:	072e                	.2byte	0x72e
80004706:	0000                	.2byte	0x0
80004708:	000004a7          	.4byte	0x4a7
8000470c:	036d                	.2byte	0x36d
8000470e:	0000                	.2byte	0x0
80004710:	000002e3          	beqz	zero,80004f14 <_tbss_end+0x450>
80004714:	03fc                	.2byte	0x3fc
80004716:	0000                	.2byte	0x0
80004718:	047d                	.2byte	0x47d
8000471a:	0000                	.2byte	0x0
8000471c:	046d                	.2byte	0x46d
8000471e:	0000                	.2byte	0x0
80004720:	0000024b          	fnmsub.s	ft4,ft0,ft0,ft0,rne
80004724:	05b6                	.2byte	0x5b6
80004726:	0000                	.2byte	0x0
80004728:	053a                	.2byte	0x53a
8000472a:	0000                	.2byte	0x0
8000472c:	024d                	.2byte	0x24d
8000472e:	0000                	.2byte	0x0
80004730:	0158                	.2byte	0x158
80004732:	0000                	.2byte	0x0
80004734:	0364                	.2byte	0x364
80004736:	0000                	.2byte	0x0
80004738:	05da                	.2byte	0x5da
8000473a:	0000                	.2byte	0x0
8000473c:	0584                	.2byte	0x584
8000473e:	0000                	.2byte	0x0
80004740:	054c                	.2byte	0x54c
80004742:	0000                	.2byte	0x0
80004744:	05c6                	.2byte	0x5c6
80004746:	0000                	.2byte	0x0
80004748:	000004cb          	fnmsub.s	fs1,ft0,ft0,ft0,rne
8000474c:	03ed                	.2byte	0x3ed
8000474e:	0000                	.2byte	0x0
80004750:	00000733          	add	a4,zero,zero
80004754:	03b9                	.2byte	0x3b9
80004756:	0000                	.2byte	0x0
80004758:	0215                	.2byte	0x215
8000475a:	0000                	.2byte	0x0
8000475c:	025e                	.2byte	0x25e
8000475e:	0000                	.2byte	0x0
80004760:	03bc                	.2byte	0x3bc
80004762:	0000                	.2byte	0x0
80004764:	03b4                	.2byte	0x3b4
80004766:	0000                	.2byte	0x0
80004768:	0371                	.2byte	0x371
8000476a:	0000                	.2byte	0x0
8000476c:	0288                	.2byte	0x288
8000476e:	0000                	.2byte	0x0
80004770:	050c                	.2byte	0x50c
80004772:	0000                	.2byte	0x0
80004774:	030a                	.2byte	0x30a
80004776:	0000                	.2byte	0x0
80004778:	0121                	.2byte	0x121
8000477a:	0000                	.2byte	0x0
8000477c:	0339                	.2byte	0x339
8000477e:	0000                	.2byte	0x0
80004780:	0475                	.2byte	0x475
80004782:	0000                	.2byte	0x0
80004784:	0456                	.2byte	0x456
80004786:	0000                	.2byte	0x0
80004788:	02d4                	.2byte	0x2d4
8000478a:	0000                	.2byte	0x0
8000478c:	03da                	.2byte	0x3da
8000478e:	0000                	.2byte	0x0
80004790:	02b9                	.2byte	0x2b9
80004792:	0000                	.2byte	0x0
80004794:	075a                	.2byte	0x75a
80004796:	0000                	.2byte	0x0
80004798:	0376                	.2byte	0x376
8000479a:	0000                	.2byte	0x0
8000479c:	06ff 0000 06e9 0000 	.byte	0xff, 0x06, 0x00, 0x00, 0xe9, 0x06, 0x00, 0x00, 0x4f, 0x02
800047a4:	024f 
800047a6:	0000                	.2byte	0x0
800047a8:	0616                	.2byte	0x616
800047aa:	0000                	.2byte	0x0
800047ac:	0674                	.2byte	0x674
800047ae:	0000                	.2byte	0x0
800047b0:	00000343          	fmadd.s	ft6,ft0,ft0,ft0,rne
800047b4:	02ce                	.2byte	0x2ce
800047b6:	0000                	.2byte	0x0
800047b8:	0382                	.2byte	0x382
800047ba:	0000                	.2byte	0x0
800047bc:	00000297          	auipc	t0,0x0
800047c0:	00000387          	.4byte	0x387
800047c4:	00000573          	.4byte	0x573
800047c8:	0206                	.2byte	0x206
800047ca:	0000                	.2byte	0x0
800047cc:	048a                	.2byte	0x48a
800047ce:	0000                	.2byte	0x0
800047d0:	01b6                	.2byte	0x1b6
800047d2:	0000                	.2byte	0x0
800047d4:	018d                	.2byte	0x18d
800047d6:	0000                	.2byte	0x0
800047d8:	0304                	.2byte	0x304
800047da:	0000                	.2byte	0x0
800047dc:	0486                	.2byte	0x486
800047de:	0000                	.2byte	0x0
800047e0:	020d                	.2byte	0x20d
800047e2:	0000                	.2byte	0x0
800047e4:	04e2                	.2byte	0x4e2
800047e6:	0000                	.2byte	0x0
800047e8:	05f1                	.2byte	0x5f1
800047ea:	0000                	.2byte	0x0
800047ec:	046e                	.2byte	0x46e
800047ee:	0000                	.2byte	0x0
800047f0:	0265                	.2byte	0x265
800047f2:	0000                	.2byte	0x0
800047f4:	028a                	.2byte	0x28a
800047f6:	0000                	.2byte	0x0
800047f8:	00000247          	fmsub.s	ft4,ft0,ft0,ft0,rne
800047fc:	02d8                	.2byte	0x2d8
800047fe:	0000                	.2byte	0x0
80004800:	020c                	.2byte	0x20c
80004802:	0000                	.2byte	0x0
80004804:	0000056f          	jal	a0,80004804 <verify_data+0x270>
80004808:	04fe                	.2byte	0x4fe
8000480a:	0000                	.2byte	0x0
8000480c:	01c9                	.2byte	0x1c9
8000480e:	0000                	.2byte	0x0
80004810:	0000038b          	.4byte	0x38b
80004814:	034d                	.2byte	0x34d
80004816:	0000                	.2byte	0x0
80004818:	0379                	.2byte	0x379
8000481a:	0000                	.2byte	0x0
8000481c:	03c5                	.2byte	0x3c5
8000481e:	0000                	.2byte	0x0
80004820:	0428                	.2byte	0x428
80004822:	0000                	.2byte	0x0
80004824:	056d                	.2byte	0x56d
80004826:	0000                	.2byte	0x0
80004828:	0000051b          	.4byte	0x51b
8000482c:	0174                	.2byte	0x174
8000482e:	0000                	.2byte	0x0
80004830:	0395                	.2byte	0x395
80004832:	0000                	.2byte	0x0
80004834:	00000567          	jalr	a0,zero # 0 <buf.2>
80004838:	03c9                	.2byte	0x3c9
8000483a:	0000                	.2byte	0x0
8000483c:	03c1                	.2byte	0x3c1
8000483e:	0000                	.2byte	0x0
80004840:	00000407          	.4byte	0x407
80004844:	00000433          	add	s0,zero,zero
80004848:	0430                	.2byte	0x430
8000484a:	0000                	.2byte	0x0
8000484c:	0391                	.2byte	0x391
8000484e:	0000                	.2byte	0x0
80004850:	0346                	.2byte	0x346
80004852:	0000                	.2byte	0x0
80004854:	013a                	.2byte	0x13a
80004856:	0000                	.2byte	0x0
80004858:	000004a7          	.4byte	0x4a7
8000485c:	00000347          	fmsub.s	ft6,ft0,ft0,ft0,rne
80004860:	067e                	.2byte	0x67e
80004862:	0000                	.2byte	0x0
80004864:	04a0                	.2byte	0x4a0
80004866:	0000                	.2byte	0x0
80004868:	0696                	.2byte	0x696
8000486a:	0000                	.2byte	0x0
8000486c:	02bc                	.2byte	0x2bc
8000486e:	0000                	.2byte	0x0
80004870:	0739                	.2byte	0x739
80004872:	0000                	.2byte	0x0
80004874:	05e5                	.2byte	0x5e5
80004876:	0000                	.2byte	0x0
80004878:	0342                	.2byte	0x342
8000487a:	0000                	.2byte	0x0
8000487c:	00000097          	auipc	ra,0x0
80004880:	040e                	.2byte	0x40e
80004882:	0000                	.2byte	0x0
80004884:	0304                	.2byte	0x304
80004886:	0000                	.2byte	0x0
80004888:	00ff 0000 01f6 0000 	.byte	0xff, 0x00, 0x00, 0x00, 0xf6, 0x01, 0x00, 0x00, 0xed, 0x02
80004890:	02ed 
80004892:	0000                	.2byte	0x0
80004894:	04d5                	.2byte	0x4d5
80004896:	0000                	.2byte	0x0
80004898:	0434                	.2byte	0x434
8000489a:	0000                	.2byte	0x0
8000489c:	0170                	.2byte	0x170
8000489e:	0000                	.2byte	0x0
800048a0:	0000023b          	.4byte	0x23b
800048a4:	000003fb          	.4byte	0x3fb
800048a8:	0164                	.2byte	0x164
800048aa:	0000                	.2byte	0x0
800048ac:	0628                	.2byte	0x628
800048ae:	0000                	.2byte	0x0
800048b0:	02c0                	.2byte	0x2c0
800048b2:	0000                	.2byte	0x0
800048b4:	05ae                	.2byte	0x5ae
800048b6:	0000                	.2byte	0x0
800048b8:	05c0                	.2byte	0x5c0
800048ba:	0000                	.2byte	0x0
800048bc:	0490                	.2byte	0x490
800048be:	0000                	.2byte	0x0
800048c0:	0470                	.2byte	0x470
800048c2:	0000                	.2byte	0x0
800048c4:	05c6                	.2byte	0x5c6
800048c6:	0000                	.2byte	0x0
800048c8:	000002b7          	lui	t0,0x0
800048cc:	00d1                	.2byte	0xd1
800048ce:	0000                	.2byte	0x0
800048d0:	022c                	.2byte	0x22c
800048d2:	0000                	.2byte	0x0
800048d4:	02a0                	.2byte	0x2a0
800048d6:	0000                	.2byte	0x0
800048d8:	029e                	.2byte	0x29e
800048da:	0000                	.2byte	0x0
800048dc:	000006bf 000003f7 	.8byte	0x3f7000006bf
800048e4:	0569                	.2byte	0x569
800048e6:	0000                	.2byte	0x0
800048e8:	01c6                	.2byte	0x1c6
800048ea:	0000                	.2byte	0x0
800048ec:	01b0                	.2byte	0x1b0
800048ee:	0000                	.2byte	0x0
800048f0:	0224                	.2byte	0x224
800048f2:	0000                	.2byte	0x0
800048f4:	000006ab          	.4byte	0x6ab
800048f8:	0280                	.2byte	0x280
800048fa:	0000                	.2byte	0x0
800048fc:	02dd                	.2byte	0x2dd
800048fe:	0000                	.2byte	0x0
80004900:	04e9                	.2byte	0x4e9
80004902:	0000                	.2byte	0x0
80004904:	043c                	.2byte	0x43c
80004906:	0000                	.2byte	0x0
80004908:	00000543          	fmadd.s	fa0,ft0,ft0,ft0,rne
8000490c:	056d                	.2byte	0x56d
8000490e:	0000                	.2byte	0x0
80004910:	00000377          	.4byte	0x377
80004914:	000004b3          	add	s1,zero,zero
80004918:	04ad                	.2byte	0x4ad
8000491a:	0000                	.2byte	0x0
8000491c:	0146                	.2byte	0x146
8000491e:	0000                	.2byte	0x0
80004920:	0299                	.2byte	0x299
80004922:	0000                	.2byte	0x0
80004924:	0000049b          	.4byte	0x49b
80004928:	03a0                	.2byte	0x3a0
8000492a:	0000                	.2byte	0x0
8000492c:	0506                	.2byte	0x506
8000492e:	0000                	.2byte	0x0
80004930:	00000407          	.4byte	0x407
80004934:	0000049b          	.4byte	0x49b
80004938:	005d                	.2byte	0x5d
8000493a:	0000                	.2byte	0x0
8000493c:	02ad                	.2byte	0x2ad
8000493e:	0000                	.2byte	0x0
80004940:	000003e3          	beqz	zero,80005146 <_tbss_end+0x682>
80004944:	01ec                	.2byte	0x1ec
80004946:	0000                	.2byte	0x0
80004948:	047e                	.2byte	0x47e
8000494a:	0000                	.2byte	0x0
8000494c:	00000197          	auipc	gp,0x0
80004950:	045a                	.2byte	0x45a
80004952:	0000                	.2byte	0x0
80004954:	000005f3          	.4byte	0x5f3
80004958:	01b1                	.2byte	0x1b1
8000495a:	0000                	.2byte	0x0
8000495c:	05b8                	.2byte	0x5b8
8000495e:	0000                	.2byte	0x0
80004960:	00000233          	add	tp,zero,zero
80004964:	00000573          	.4byte	0x573
80004968:	02d2                	.2byte	0x2d2
8000496a:	0000                	.2byte	0x0
8000496c:	047a                	.2byte	0x47a
8000496e:	0000                	.2byte	0x0
80004970:	056a                	.2byte	0x56a
80004972:	0000                	.2byte	0x0
80004974:	02cc                	.2byte	0x2cc
80004976:	0000                	.2byte	0x0
80004978:	06b1                	.2byte	0x6b1
8000497a:	0000                	.2byte	0x0
8000497c:	0702                	.2byte	0x702
8000497e:	0000                	.2byte	0x0
80004980:	0375                	.2byte	0x375
80004982:	0000                	.2byte	0x0
80004984:	0281                	.2byte	0x281
80004986:	0000                	.2byte	0x0
80004988:	010a                	.2byte	0x10a
8000498a:	0000                	.2byte	0x0
8000498c:	05f9                	.2byte	0x5f9
8000498e:	0000                	.2byte	0x0
80004990:	00000443          	fmadd.s	fs0,ft0,ft0,ft0,rne
80004994:	0278                	.2byte	0x278
80004996:	0000                	.2byte	0x0
80004998:	04dc                	.2byte	0x4dc
8000499a:	0000                	.2byte	0x0
8000499c:	0415                	.2byte	0x415
8000499e:	0000                	.2byte	0x0
800049a0:	05df 0000 04c7      	.byte	0xdf, 0x05, 0x00, 0x00, 0xc7, 0x04
800049a6:	0000                	.2byte	0x0
800049a8:	0000032b          	.4byte	0x32b
800049ac:	0000048f          	.4byte	0x48f
800049b0:	0000028f          	.4byte	0x28f
800049b4:	02fc                	.2byte	0x2fc
800049b6:	0000                	.2byte	0x0
800049b8:	04c1                	.2byte	0x4c1
800049ba:	0000                	.2byte	0x0
800049bc:	005e                	.2byte	0x5e
800049be:	0000                	.2byte	0x0
800049c0:	028a                	.2byte	0x28a
800049c2:	0000                	.2byte	0x0
800049c4:	01a2                	.2byte	0x1a2
800049c6:	0000                	.2byte	0x0
800049c8:	0289                	.2byte	0x289
800049ca:	0000                	.2byte	0x0
800049cc:	045c                	.2byte	0x45c
800049ce:	0000                	.2byte	0x0
800049d0:	00000647          	fmsub.s	fa2,ft0,ft0,ft0,rne
800049d4:	000002bb          	.4byte	0x2bb
800049d8:	000004c3          	fmadd.s	fs1,ft0,ft0,ft0,rne
800049dc:	04f5                	.2byte	0x4f5
800049de:	0000                	.2byte	0x0
800049e0:	0379                	.2byte	0x379
800049e2:	0000                	.2byte	0x0
800049e4:	00000213          	li	tp,0
800049e8:	0426                	.2byte	0x426
800049ea:	0000                	.2byte	0x0
800049ec:	063e                	.2byte	0x63e
800049ee:	0000                	.2byte	0x0
800049f0:	045e                	.2byte	0x45e
800049f2:	0000                	.2byte	0x0
800049f4:	049a                	.2byte	0x49a
800049f6:	0000                	.2byte	0x0
800049f8:	05a0                	.2byte	0x5a0
800049fa:	0000                	.2byte	0x0
800049fc:	02d2                	.2byte	0x2d2
800049fe:	0000                	.2byte	0x0
80004a00:	0576                	.2byte	0x576
80004a02:	0000                	.2byte	0x0
80004a04:	01df 0000 03c1      	.byte	0xdf, 0x01, 0x00, 0x00, 0xc1, 0x03
80004a0a:	0000                	.2byte	0x0
80004a0c:	00000423          	sb	zero,8(zero) # 8 <buf.2+0x8>
80004a10:	00000227          	.4byte	0x227
80004a14:	0245                	.2byte	0x245
80004a16:	0000                	.2byte	0x0
80004a18:	0172                	.2byte	0x172
80004a1a:	0000                	.2byte	0x0
80004a1c:	0186                	.2byte	0x186
80004a1e:	0000                	.2byte	0x0
80004a20:	0405                	.2byte	0x405
80004a22:	0000                	.2byte	0x0
80004a24:	0300                	.2byte	0x300
80004a26:	0000                	.2byte	0x0
80004a28:	03b1                	.2byte	0x3b1
80004a2a:	0000                	.2byte	0x0
80004a2c:	05d4                	.2byte	0x5d4
80004a2e:	0000                	.2byte	0x0
80004a30:	03ad                	.2byte	0x3ad
80004a32:	0000                	.2byte	0x0
80004a34:	049a                	.2byte	0x49a
80004a36:	0000                	.2byte	0x0
80004a38:	04cd                	.2byte	0x4cd
80004a3a:	0000                	.2byte	0x0
80004a3c:	00000137          	lui	sp,0x0
80004a40:	0319                	.2byte	0x319
80004a42:	0000                	.2byte	0x0
